ccopy_reg
_reconstructor
p1
(c__main__
TimitManager
p2
c__builtin__
object
p3
NtRp4
(dp5
S'ubm'
p6
(dp7
S'MHRM0'
p8
(lp9
S'SA1.WAV'
p10
aS'SA2.WAV'
p11
aS'SI1475.WAV'
p12
aS'SI2218.WAV'
p13
aS'SI958.WAV'
p14
aS'SX148.WAV'
p15
aS'SX238.WAV'
p16
aS'SX328.WAV'
p17
aS'SX418.WAV'
p18
aS'SX58.WAV'
p19
asS'MJFR0'
p20
(lp21
S'SA1.WAV'
p22
aS'SA2.WAV'
p23
aS'SI1605.WAV'
p24
aS'SI2235.WAV'
p25
aS'SI975.WAV'
p26
aS'SX165.WAV'
p27
aS'SX255.WAV'
p28
aS'SX345.WAV'
p29
aS'SX435.WAV'
p30
aS'SX75.WAV'
p31
asS'MCDR0'
p32
(lp33
S'SA1.WAV'
p34
aS'SA2.WAV'
p35
aS'SI1154.WAV'
p36
aS'SI1784.WAV'
p37
aS'SI524.WAV'
p38
aS'SX164.WAV'
p39
aS'SX254.WAV'
p40
aS'SX344.WAV'
p41
aS'SX434.WAV'
p42
aS'SX74.WAV'
p43
asS'FCMR0'
p44
(lp45
S'SA1.WAV'
p46
aS'SA2.WAV'
p47
aS'SI1105.WAV'
p48
aS'SI1735.WAV'
p49
aS'SI475.WAV'
p50
aS'SX115.WAV'
p51
aS'SX205.WAV'
p52
aS'SX25.WAV'
p53
aS'SX295.WAV'
p54
aS'SX385.WAV'
p55
asS'MMDG0'
p56
(lp57
S'SA1.WAV'
p58
aS'SA2.WAV'
p59
aS'SI1780.WAV'
p60
aS'SI2035.WAV'
p61
aS'SI520.WAV'
p62
aS'SX160.WAV'
p63
aS'SX250.WAV'
p64
aS'SX340.WAV'
p65
aS'SX430.WAV'
p66
aS'SX70.WAV'
p67
asS'MSMR0'
p68
(lp69
S'SA1.WAV'
p70
aS'SA2.WAV'
p71
aS'SI1150.WAV'
p72
aS'SI1405.WAV'
p73
aS'SI775.WAV'
p74
aS'SX145.WAV'
p75
aS'SX235.WAV'
p76
aS'SX325.WAV'
p77
aS'SX415.WAV'
p78
aS'SX55.WAV'
p79
asS'MDJM0'
p80
(lp81
S'SA1.WAV'
p82
aS'SA2.WAV'
p83
aS'SI1455.WAV'
p84
aS'SI2085.WAV'
p85
aS'SI825.WAV'
p86
aS'SX105.WAV'
p87
aS'SX15.WAV'
p88
aS'SX195.WAV'
p89
aS'SX285.WAV'
p90
aS'SX375.WAV'
p91
asS'MCTM0'
p92
(lp93
S'SA1.WAV'
p94
aS'SA2.WAV'
p95
aS'SI1350.WAV'
p96
aS'SI1980.WAV'
p97
aS'SI720.WAV'
p98
aS'SX180.WAV'
p99
aS'SX270.WAV'
p100
aS'SX360.WAV'
p101
aS'SX450.WAV'
p102
aS'SX90.WAV'
p103
asS'MRML0'
p104
(lp105
S'SA1.WAV'
p106
aS'SA2.WAV'
p107
aS'SI1421.WAV'
p108
aS'SI2051.WAV'
p109
aS'SI791.WAV'
p110
aS'SX161.WAV'
p111
aS'SX251.WAV'
p112
aS'SX341.WAV'
p113
aS'SX431.WAV'
p114
aS'SX71.WAV'
p115
asS'MBPM0'
p116
(lp117
S'SA1.WAV'
p118
aS'SA2.WAV'
p119
aS'SI1577.WAV'
p120
aS'SI1584.WAV'
p121
aS'SI947.WAV'
p122
aS'SX137.WAV'
p123
aS'SX227.WAV'
p124
aS'SX317.WAV'
p125
aS'SX407.WAV'
p126
aS'SX47.WAV'
p127
asS'MJEB1'
p128
(lp129
S'SA1.WAV'
p130
aS'SA2.WAV'
p131
aS'SI1467.WAV'
p132
aS'SI2097.WAV'
p133
aS'SI837.WAV'
p134
aS'SX117.WAV'
p135
aS'SX207.WAV'
p136
aS'SX27.WAV'
p137
aS'SX297.WAV'
p138
aS'SX387.WAV'
p139
asS'FISB0'
p140
(lp141
S'SA1.WAV'
p142
aS'SA2.WAV'
p143
aS'SI1579.WAV'
p144
aS'SI2209.WAV'
p145
aS'SI949.WAV'
p146
aS'SX139.WAV'
p147
aS'SX229.WAV'
p148
aS'SX319.WAV'
p149
aS'SX409.WAV'
p150
aS'SX49.WAV'
p151
asS'FKSR0'
p152
(lp153
S'SA1.WAV'
p154
aS'SA2.WAV'
p155
aS'SI1117.WAV'
p156
aS'SI1747.WAV'
p157
aS'SI487.WAV'
p158
aS'SX161.WAV'
p159
aS'SX217.WAV'
p160
aS'SX366.WAV'
p161
aS'SX37.WAV'
p162
aS'SX397.WAV'
p163
asS'MCEF0'
p164
(lp165
S'SA1.WAV'
p166
aS'SA2.WAV'
p167
aS'SI1135.WAV'
p168
aS'SI1765.WAV'
p169
aS'SI842.WAV'
p170
aS'SX145.WAV'
p171
aS'SX235.WAV'
p172
aS'SX325.WAV'
p173
aS'SX415.WAV'
p174
aS'SX55.WAV'
p175
asS'MAFM0'
p176
(lp177
S'SA1.WAV'
p178
aS'SA2.WAV'
p179
aS'SI1569.WAV'
p180
aS'SI2199.WAV'
p181
aS'SI939.WAV'
p182
aS'SX129.WAV'
p183
aS'SX219.WAV'
p184
aS'SX309.WAV'
p185
aS'SX39.WAV'
p186
aS'SX399.WAV'
p187
asS'MAHH0'
p188
(lp189
S'SA1.WAV'
p190
aS'SA2.WAV'
p191
aS'SI1294.WAV'
p192
aS'SI1924.WAV'
p193
aS'SI664.WAV'
p194
aS'SX124.WAV'
p195
aS'SX214.WAV'
p196
aS'SX304.WAV'
p197
aS'SX34.WAV'
p198
aS'SX394.WAV'
p199
asS'MREB0'
p200
(lp201
S'SA1.WAV'
p202
aS'SA2.WAV'
p203
aS'SI1375.WAV'
p204
aS'SI2005.WAV'
p205
aS'SI745.WAV'
p206
aS'SX115.WAV'
p207
aS'SX205.WAV'
p208
aS'SX25.WAV'
p209
aS'SX295.WAV'
p210
aS'SX385.WAV'
p211
asS'MCPM0'
p212
(lp213
S'SA1.WAV'
p214
aS'SA2.WAV'
p215
aS'SI1194.WAV'
p216
aS'SI1824.WAV'
p217
aS'SI564.WAV'
p218
aS'SX114.WAV'
p219
aS'SX204.WAV'
p220
aS'SX24.WAV'
p221
aS'SX294.WAV'
p222
aS'SX384.WAV'
p223
asS'FVFB0'
p224
(lp225
S'SA1.WAV'
p226
aS'SA2.WAV'
p227
aS'SI1032.WAV'
p228
aS'SI1510.WAV'
p229
aS'SI2292.WAV'
p230
aS'SX132.WAV'
p231
aS'SX222.WAV'
p232
aS'SX312.WAV'
p233
aS'SX402.WAV'
p234
aS'SX42.WAV'
p235
asS'MJJJ0'
p236
(lp237
S'SA1.WAV'
p238
aS'SA2.WAV'
p239
aS'SI1163.WAV'
p240
aS'SI1793.WAV'
p241
aS'SI533.WAV'
p242
aS'SX173.WAV'
p243
aS'SX263.WAV'
p244
aS'SX353.WAV'
p245
aS'SX443.WAV'
p246
aS'SX83.WAV'
p247
asS'MTJU0'
p248
(lp249
S'SA1.WAV'
p250
aS'SA2.WAV'
p251
aS'SI2020.WAV'
p252
aS'SI2269.WAV'
p253
aS'SI760.WAV'
p254
aS'SX130.WAV'
p255
aS'SX220.WAV'
p256
aS'SX310.WAV'
p257
aS'SX40.WAV'
p258
aS'SX400.WAV'
p259
asS'MCAE0'
p260
(lp261
S'SA1.WAV'
p262
aS'SA2.WAV'
p263
aS'SI1447.WAV'
p264
aS'SI2077.WAV'
p265
aS'SI817.WAV'
p266
aS'SX187.WAV'
p267
aS'SX277.WAV'
p268
aS'SX367.WAV'
p269
aS'SX7.WAV'
p270
aS'SX97.WAV'
p271
asS'MDAS0'
p272
(lp273
S'SA1.WAV'
p274
aS'SA2.WAV'
p275
aS'SI1266.WAV'
p276
aS'SI1896.WAV'
p277
aS'SI636.WAV'
p278
aS'SX186.WAV'
p279
aS'SX21.WAV'
p280
aS'SX276.WAV'
p281
aS'SX6.WAV'
p282
aS'SX96.WAV'
p283
asS'MWSH0'
p284
(lp285
S'SA1.WAV'
p286
aS'SA2.WAV'
p287
aS'SI1426.WAV'
p288
aS'SI2266.WAV'
p289
aS'SI796.WAV'
p290
aS'SX166.WAV'
p291
aS'SX256.WAV'
p292
aS'SX346.WAV'
p293
aS'SX436.WAV'
p294
aS'SX76.WAV'
p295
asS'MJDM1'
p296
(lp297
S'SA1.WAV'
p298
aS'SA2.WAV'
p299
aS'SI1085.WAV'
p300
aS'SI1715.WAV'
p301
aS'SI455.WAV'
p302
aS'SX185.WAV'
p303
aS'SX275.WAV'
p304
aS'SX365.WAV'
p305
aS'SX5.WAV'
p306
aS'SX95.WAV'
p307
asS'FLMA0'
p308
(lp309
S'SA1.WAV'
p310
aS'SA2.WAV'
p311
aS'SI1243.WAV'
p312
aS'SI1873.WAV'
p313
aS'SI613.WAV'
p314
aS'SX163.WAV'
p315
aS'SX253.WAV'
p316
aS'SX343.WAV'
p317
aS'SX433.WAV'
p318
aS'SX73.WAV'
p319
asS'MPFU0'
p320
(lp321
S'SA1.WAV'
p322
aS'SA2.WAV'
p323
aS'SI1258.WAV'
p324
aS'SI1888.WAV'
p325
aS'SI628.WAV'
p326
aS'SX178.WAV'
p327
aS'SX268.WAV'
p328
aS'SX358.WAV'
p329
aS'SX448.WAV'
p330
aS'SX88.WAV'
p331
asS'FPAF0'
p332
(lp333
S'SA1.WAV'
p334
aS'SA2.WAV'
p335
aS'SI1054.WAV'
p336
aS'SI1684.WAV'
p337
aS'SI2314.WAV'
p338
aS'SX154.WAV'
p339
aS'SX244.WAV'
p340
aS'SX334.WAV'
p341
aS'SX424.WAV'
p342
aS'SX64.WAV'
p343
asS'MMGC0'
p344
(lp345
S'SA1.WAV'
p346
aS'SA2.WAV'
p347
aS'SI1305.WAV'
p348
aS'SI1935.WAV'
p349
aS'SI2184.WAV'
p350
aS'SX135.WAV'
p351
aS'SX225.WAV'
p352
aS'SX315.WAV'
p353
aS'SX405.WAV'
p354
aS'SX45.WAV'
p355
asS'FLKM0'
p356
(lp357
S'SA1.WAV'
p358
aS'SA2.WAV'
p359
aS'SI1880.WAV'
p360
aS'SI620.WAV'
p361
aS'SI686.WAV'
p362
aS'SX116.WAV'
p363
aS'SX260.WAV'
p364
aS'SX350.WAV'
p365
aS'SX440.WAV'
p366
aS'SX80.WAV'
p367
asS'FSAK0'
p368
(lp369
S'SA1.WAV'
p370
aS'SA2.WAV'
p371
aS'SI1300.WAV'
p372
aS'SI1930.WAV'
p373
aS'SI670.WAV'
p374
aS'SX130.WAV'
p375
aS'SX220.WAV'
p376
aS'SX310.WAV'
p377
aS'SX40.WAV'
p378
aS'SX400.WAV'
p379
asS'MKDR0'
p380
(lp381
S'SA1.WAV'
p382
aS'SA2.WAV'
p383
aS'SI1273.WAV'
p384
aS'SI1903.WAV'
p385
aS'SI643.WAV'
p386
aS'SX103.WAV'
p387
aS'SX13.WAV'
p388
aS'SX193.WAV'
p389
aS'SX283.WAV'
p390
aS'SX373.WAV'
p391
asS'MNLS0'
p392
(lp393
S'SA1.WAV'
p394
aS'SA2.WAV'
p395
aS'SI1483.WAV'
p396
aS'SI1610.WAV'
p397
aS'SI853.WAV'
p398
aS'SX133.WAV'
p399
aS'SX223.WAV'
p400
aS'SX313.WAV'
p401
aS'SX403.WAV'
p402
aS'SX43.WAV'
p403
asS'MRMS0'
p404
(lp405
S'SA1.WAV'
p406
aS'SA2.WAV'
p407
aS'SI1113.WAV'
p408
aS'SI2057.WAV'
p409
aS'SI2100.WAV'
p410
aS'SX120.WAV'
p411
aS'SX210.WAV'
p412
aS'SX30.WAV'
p413
aS'SX300.WAV'
p414
aS'SX390.WAV'
p415
asS'MRMS1'
p416
(lp417
S'SA1.WAV'
p418
aS'SA2.WAV'
p419
aS'SI1487.WAV'
p420
aS'SI2117.WAV'
p421
aS'SI857.WAV'
p422
aS'SX137.WAV'
p423
aS'SX227.WAV'
p424
aS'SX317.WAV'
p425
aS'SX407.WAV'
p426
aS'SX47.WAV'
p427
asS'FAPB0'
p428
(lp429
S'SA1.WAV'
p430
aS'SA2.WAV'
p431
aS'SI1063.WAV'
p432
aS'SI1693.WAV'
p433
aS'SI2323.WAV'
p434
aS'SX163.WAV'
p435
aS'SX253.WAV'
p436
aS'SX343.WAV'
p437
aS'SX433.WAV'
p438
aS'SX73.WAV'
p439
asS'MTPG0'
p440
(lp441
S'SA1.WAV'
p442
aS'SA2.WAV'
p443
aS'SI1383.WAV'
p444
aS'SI2013.WAV'
p445
aS'SI753.WAV'
p446
aS'SX123.WAV'
p447
aS'SX213.WAV'
p448
aS'SX303.WAV'
p449
aS'SX33.WAV'
p450
aS'SX393.WAV'
p451
asS'MSFH1'
p452
(lp453
S'SA1.WAV'
p454
aS'SA2.WAV'
p455
aS'SI1270.WAV'
p456
aS'SI1900.WAV'
p457
aS'SI640.WAV'
p458
aS'SX10.WAV'
p459
aS'SX100.WAV'
p460
aS'SX190.WAV'
p461
aS'SX280.WAV'
p462
aS'SX370.WAV'
p463
asS'MGRP0'
p464
(lp465
S'SA1.WAV'
p466
aS'SA2.WAV'
p467
aS'SI1317.WAV'
p468
aS'SI1947.WAV'
p469
aS'SI687.WAV'
p470
aS'SX147.WAV'
p471
aS'SX237.WAV'
p472
aS'SX327.WAV'
p473
aS'SX417.WAV'
p474
aS'SX57.WAV'
p475
asS'MRLJ0'
p476
(lp477
S'SA1.WAV'
p478
aS'SA2.WAV'
p479
aS'SI1420.WAV'
p480
aS'SI2050.WAV'
p481
aS'SI790.WAV'
p482
aS'SX160.WAV'
p483
aS'SX250.WAV'
p484
aS'SX340.WAV'
p485
aS'SX430.WAV'
p486
aS'SX70.WAV'
p487
asS'MRLJ1'
p488
(lp489
S'SA1.WAV'
p490
aS'SA2.WAV'
p491
aS'SI1671.WAV'
p492
aS'SI2301.WAV'
p493
aS'SI2332.WAV'
p494
aS'SX141.WAV'
p495
aS'SX231.WAV'
p496
aS'SX321.WAV'
p497
aS'SX411.WAV'
p498
aS'SX51.WAV'
p499
asS'MDEM0'
p500
(lp501
S'SA1.WAV'
p502
aS'SA2.WAV'
p503
aS'SI1868.WAV'
p504
aS'SI608.WAV'
p505
aS'SI800.WAV'
p506
aS'SX158.WAV'
p507
aS'SX248.WAV'
p508
aS'SX338.WAV'
p509
aS'SX428.WAV'
p510
aS'SX68.WAV'
p511
asS'MRJR0'
p512
(lp513
S'SA1.WAV'
p514
aS'SA2.WAV'
p515
aS'SI1182.WAV'
p516
aS'SI1812.WAV'
p517
aS'SI2313.WAV'
p518
aS'SX102.WAV'
p519
aS'SX12.WAV'
p520
aS'SX192.WAV'
p521
aS'SX282.WAV'
p522
aS'SX372.WAV'
p523
asS'MRTJ0'
p524
(lp525
S'SA1.WAV'
p526
aS'SA2.WAV'
p527
aS'SI1551.WAV'
p528
aS'SI2032.WAV'
p529
aS'SI772.WAV'
p530
aS'SX142.WAV'
p531
aS'SX232.WAV'
p532
aS'SX322.WAV'
p533
aS'SX412.WAV'
p534
aS'SX52.WAV'
p535
asS'FAKS0'
p536
(lp537
S'SA1.WAV'
p538
aS'SA2.WAV'
p539
aS'SI1573.WAV'
p540
aS'SI2203.WAV'
p541
aS'SI943.WAV'
p542
aS'SX133.WAV'
p543
aS'SX223.WAV'
p544
aS'SX313.WAV'
p545
aS'SX403.WAV'
p546
aS'SX43.WAV'
p547
asS'MBAR0'
p548
(lp549
S'SA1.WAV'
p550
aS'SA2.WAV'
p551
aS'SI1319.WAV'
p552
aS'SI1949.WAV'
p553
aS'SI689.WAV'
p554
aS'SX149.WAV'
p555
aS'SX239.WAV'
p556
aS'SX329.WAV'
p557
aS'SX419.WAV'
p558
aS'SX59.WAV'
p559
asS'MKCL0'
p560
(lp561
S'SA1.WAV'
p562
aS'SA2.WAV'
p563
aS'SI1091.WAV'
p564
aS'SI1721.WAV'
p565
aS'SI461.WAV'
p566
aS'SX101.WAV'
p567
aS'SX11.WAV'
p568
aS'SX191.WAV'
p569
aS'SX281.WAV'
p570
aS'SX371.WAV'
p571
asS'MJSR0'
p572
(lp573
S'SA1.WAV'
p574
aS'SA2.WAV'
p575
aS'SI1424.WAV'
p576
aS'SI2054.WAV'
p577
aS'SI794.WAV'
p578
aS'SX164.WAV'
p579
aS'SX254.WAV'
p580
aS'SX344.WAV'
p581
aS'SX434.WAV'
p582
aS'SX74.WAV'
p583
asS'MCDD0'
p584
(lp585
S'SA1.WAV'
p586
aS'SA2.WAV'
p587
aS'SI1513.WAV'
p588
aS'SI2143.WAV'
p589
aS'SI883.WAV'
p590
aS'SX163.WAV'
p591
aS'SX253.WAV'
p592
aS'SX343.WAV'
p593
aS'SX433.WAV'
p594
aS'SX73.WAV'
p595
asS'FJEM0'
p596
(lp597
S'SA1.WAV'
p598
aS'SA2.WAV'
p599
aS'SI1264.WAV'
p600
aS'SI1894.WAV'
p601
aS'SI634.WAV'
p602
aS'SX184.WAV'
p603
aS'SX274.WAV'
p604
aS'SX364.WAV'
p605
aS'SX4.WAV'
p606
aS'SX94.WAV'
p607
asS'FCAJ0'
p608
(lp609
S'SA1.WAV'
p610
aS'SA2.WAV'
p611
aS'SI1479.WAV'
p612
aS'SI1804.WAV'
p613
aS'SI849.WAV'
p614
aS'SX129.WAV'
p615
aS'SX219.WAV'
p616
aS'SX309.WAV'
p617
aS'SX39.WAV'
p618
aS'SX399.WAV'
p619
asS'FSKL0'
p620
(lp621
S'SA1.WAV'
p622
aS'SA2.WAV'
p623
aS'SI1529.WAV'
p624
aS'SI2159.WAV'
p625
aS'SI899.WAV'
p626
aS'SX179.WAV'
p627
aS'SX269.WAV'
p628
aS'SX359.WAV'
p629
aS'SX449.WAV'
p630
aS'SX89.WAV'
p631
asS'MDLF0'
p632
(lp633
S'SA1.WAV'
p634
aS'SA2.WAV'
p635
aS'SI1583.WAV'
p636
aS'SI2213.WAV'
p637
aS'SI953.WAV'
p638
aS'SX143.WAV'
p639
aS'SX233.WAV'
p640
aS'SX323.WAV'
p641
aS'SX413.WAV'
p642
aS'SX53.WAV'
p643
asS'MTJG0'
p644
(lp645
S'SA1.WAV'
p646
aS'SA2.WAV'
p647
aS'SI1520.WAV'
p648
aS'SI2157.WAV'
p649
aS'SI890.WAV'
p650
aS'SX170.WAV'
p651
aS'SX260.WAV'
p652
aS'SX350.WAV'
p653
aS'SX440.WAV'
p654
aS'SX80.WAV'
p655
asS'MWAD0'
p656
(lp657
S'SA1.WAV'
p658
aS'SA2.WAV'
p659
aS'SI1062.WAV'
p660
aS'SI1749.WAV'
p661
aS'SI2322.WAV'
p662
aS'SX162.WAV'
p663
aS'SX252.WAV'
p664
aS'SX342.WAV'
p665
aS'SX432.WAV'
p666
aS'SX72.WAV'
p667
asS'MGAG0'
p668
(lp669
S'SA1.WAV'
p670
aS'SA2.WAV'
p671
aS'SI1321.WAV'
p672
aS'SI645.WAV'
p673
aS'SI691.WAV'
p674
aS'SX151.WAV'
p675
aS'SX241.WAV'
p676
aS'SX331.WAV'
p677
aS'SX421.WAV'
p678
aS'SX61.WAV'
p679
asS'MMWB0'
p680
(lp681
S'SA1.WAV'
p682
aS'SA2.WAV'
p683
aS'SI1619.WAV'
p684
aS'SI2249.WAV'
p685
aS'SI989.WAV'
p686
aS'SX179.WAV'
p687
aS'SX269.WAV'
p688
aS'SX359.WAV'
p689
aS'SX449.WAV'
p690
aS'SX89.WAV'
p691
asS'FSKC0'
p692
(lp693
S'SA1.WAV'
p694
aS'SA2.WAV'
p695
aS'SI1416.WAV'
p696
aS'SI2046.WAV'
p697
aS'SI786.WAV'
p698
aS'SX156.WAV'
p699
aS'SX246.WAV'
p700
aS'SX336.WAV'
p701
aS'SX426.WAV'
p702
aS'SX66.WAV'
p703
asS'MWCH0'
p704
(lp705
S'SA1.WAV'
p706
aS'SA2.WAV'
p707
aS'SI1622.WAV'
p708
aS'SI1895.WAV'
p709
aS'SI2252.WAV'
p710
aS'SX182.WAV'
p711
aS'SX272.WAV'
p712
aS'SX362.WAV'
p713
aS'SX452.WAV'
p714
aS'SX92.WAV'
p715
asS'FRNG0'
p716
(lp717
S'SA1.WAV'
p718
aS'SA2.WAV'
p719
aS'SI1355.WAV'
p720
aS'SI1985.WAV'
p721
aS'SI725.WAV'
p722
aS'SX185.WAV'
p723
aS'SX275.WAV'
p724
aS'SX365.WAV'
p725
aS'SX5.WAV'
p726
aS'SX95.WAV'
p727
asS'MDEF0'
p728
(lp729
S'SA1.WAV'
p730
aS'SA2.WAV'
p731
aS'SI1123.WAV'
p732
aS'SI1563.WAV'
p733
aS'SI2193.WAV'
p734
aS'SX123.WAV'
p735
aS'SX213.WAV'
p736
aS'SX303.WAV'
p737
aS'SX33.WAV'
p738
aS'SX393.WAV'
p739
asS'MMBS0'
p740
(lp741
S'SA1.WAV'
p742
aS'SA2.WAV'
p743
aS'SI1151.WAV'
p744
aS'SI1781.WAV'
p745
aS'SI521.WAV'
p746
aS'SX161.WAV'
p747
aS'SX251.WAV'
p748
aS'SX341.WAV'
p749
aS'SX431.WAV'
p750
aS'SX71.WAV'
p751
asS'FDMS0'
p752
(lp753
S'SA1.WAV'
p754
aS'SA2.WAV'
p755
aS'SI1218.WAV'
p756
aS'SI1502.WAV'
p757
aS'SI1848.WAV'
p758
aS'SX138.WAV'
p759
aS'SX228.WAV'
p760
aS'SX318.WAV'
p761
aS'SX408.WAV'
p762
aS'SX48.WAV'
p763
asS'MDLM0'
p764
(lp765
S'SA1.WAV'
p766
aS'SA2.WAV'
p767
aS'SI1234.WAV'
p768
aS'SI1864.WAV'
p769
aS'SI604.WAV'
p770
aS'SX154.WAV'
p771
aS'SX244.WAV'
p772
aS'SX334.WAV'
p773
aS'SX424.WAV'
p774
aS'SX64.WAV'
p775
asS'MKLS0'
p776
(lp777
S'SA1.WAV'
p778
aS'SA2.WAV'
p779
aS'SI1437.WAV'
p780
aS'SI1533.WAV'
p781
aS'SI2067.WAV'
p782
aS'SX177.WAV'
p783
aS'SX267.WAV'
p784
aS'SX357.WAV'
p785
aS'SX447.WAV'
p786
aS'SX87.WAV'
p787
asS'MKLS1'
p788
(lp789
S'SA1.WAV'
p790
aS'SA2.WAV'
p791
aS'SI1545.WAV'
p792
aS'SI2175.WAV'
p793
aS'SI915.WAV'
p794
aS'SX105.WAV'
p795
aS'SX15.WAV'
p796
aS'SX195.WAV'
p797
aS'SX285.WAV'
p798
aS'SX375.WAV'
p799
asS'FCJS0'
p800
(lp801
S'SA1.WAV'
p802
aS'SA2.WAV'
p803
aS'SI1607.WAV'
p804
aS'SI2237.WAV'
p805
aS'SI977.WAV'
p806
aS'SX167.WAV'
p807
aS'SX257.WAV'
p808
aS'SX347.WAV'
p809
aS'SX437.WAV'
p810
aS'SX77.WAV'
p811
asS'FMAH1'
p812
(lp813
S'SA1.WAV'
p814
aS'SA2.WAV'
p815
aS'SI1509.WAV'
p816
aS'SI2139.WAV'
p817
aS'SI879.WAV'
p818
aS'SX159.WAV'
p819
aS'SX249.WAV'
p820
aS'SX339.WAV'
p821
aS'SX429.WAV'
p822
aS'SX69.WAV'
p823
asS'MRVG0'
p824
(lp825
S'SA1.WAV'
p826
aS'SA2.WAV'
p827
aS'SI1140.WAV'
p828
aS'SI1770.WAV'
p829
aS'SI510.WAV'
p830
aS'SX150.WAV'
p831
aS'SX240.WAV'
p832
aS'SX330.WAV'
p833
aS'SX420.WAV'
p834
aS'SX60.WAV'
p835
asS'MWAC0'
p836
(lp837
S'SA1.WAV'
p838
aS'SA2.WAV'
p839
aS'SI1601.WAV'
p840
aS'SI2231.WAV'
p841
aS'SI971.WAV'
p842
aS'SX161.WAV'
p843
aS'SX251.WAV'
p844
aS'SX341.WAV'
p845
aS'SX431.WAV'
p846
aS'SX71.WAV'
p847
asS'MPRT0'
p848
(lp849
S'SA1.WAV'
p850
aS'SA2.WAV'
p851
aS'SI1210.WAV'
p852
aS'SI495.WAV'
p853
aS'SI580.WAV'
p854
aS'SX130.WAV'
p855
aS'SX220.WAV'
p856
aS'SX310.WAV'
p857
aS'SX40.WAV'
p858
aS'SX400.WAV'
p859
asS'MCLM0'
p860
(lp861
S'SA1.WAV'
p862
aS'SA2.WAV'
p863
aS'SI1456.WAV'
p864
aS'SI2086.WAV'
p865
aS'SI826.WAV'
p866
aS'SX106.WAV'
p867
aS'SX16.WAV'
p868
aS'SX196.WAV'
p869
aS'SX286.WAV'
p870
aS'SX376.WAV'
p871
asS'MMAR0'
p872
(lp873
S'SA1.WAV'
p874
aS'SA2.WAV'
p875
aS'SI1336.WAV'
p876
aS'SI1966.WAV'
p877
aS'SI706.WAV'
p878
aS'SX166.WAV'
p879
aS'SX256.WAV'
p880
aS'SX346.WAV'
p881
aS'SX436.WAV'
p882
aS'SX76.WAV'
p883
asS'MMDH0'
p884
(lp885
S'SA1.WAV'
p886
aS'SA2.WAV'
p887
aS'SI1656.WAV'
p888
aS'SI2118.WAV'
p889
aS'SI2286.WAV'
p890
aS'SX126.WAV'
p891
aS'SX216.WAV'
p892
aS'SX306.WAV'
p893
aS'SX36.WAV'
p894
aS'SX396.WAV'
p895
asS'MBBR0'
p896
(lp897
S'SA1.WAV'
p898
aS'SA2.WAV'
p899
aS'SI1055.WAV'
p900
aS'SI1685.WAV'
p901
aS'SI2315.WAV'
p902
aS'SX155.WAV'
p903
aS'SX245.WAV'
p904
aS'SX335.WAV'
p905
aS'SX425.WAV'
p906
aS'SX65.WAV'
p907
asS'MLJH0'
p908
(lp909
S'SA1.WAV'
p910
aS'SA2.WAV'
p911
aS'SI1324.WAV'
p912
aS'SI1422.WAV'
p913
aS'SI694.WAV'
p914
aS'SX154.WAV'
p915
aS'SX244.WAV'
p916
aS'SX334.WAV'
p917
aS'SX424.WAV'
p918
aS'SX64.WAV'
p919
asS'FCDR1'
p920
(lp921
S'SA1.WAV'
p922
aS'SA2.WAV'
p923
aS'SI1186.WAV'
p924
aS'SI1816.WAV'
p925
aS'SI556.WAV'
p926
aS'SX106.WAV'
p927
aS'SX16.WAV'
p928
aS'SX196.WAV'
p929
aS'SX286.WAV'
p930
aS'SX376.WAV'
p931
asS'FCMH0'
p932
(lp933
S'SA1.WAV'
p934
aS'SA2.WAV'
p935
aS'SI1454.WAV'
p936
aS'SI2084.WAV'
p937
aS'SI824.WAV'
p938
aS'SX104.WAV'
p939
aS'SX14.WAV'
p940
aS'SX194.WAV'
p941
aS'SX284.WAV'
p942
aS'SX374.WAV'
p943
asS'FJRE0'
p944
(lp945
S'SA1.WAV'
p946
aS'SA2.WAV'
p947
aS'SI1116.WAV'
p948
aS'SI1587.WAV'
p949
aS'SI1746.WAV'
p950
aS'SX126.WAV'
p951
aS'SX216.WAV'
p952
aS'SX306.WAV'
p953
aS'SX36.WAV'
p954
aS'SX396.WAV'
p955
asS'MFER0'
p956
(lp957
S'SA1.WAV'
p958
aS'SA2.WAV'
p959
aS'SI1492.WAV'
p960
aS'SI2122.WAV'
p961
aS'SI862.WAV'
p962
aS'SX142.WAV'
p963
aS'SX232.WAV'
p964
aS'SX322.WAV'
p965
aS'SX412.WAV'
p966
aS'SX52.WAV'
p967
asS'MPCS0'
p968
(lp969
S'SA1.WAV'
p970
aS'SA2.WAV'
p971
aS'SI1359.WAV'
p972
aS'SI1989.WAV'
p973
aS'SI729.WAV'
p974
aS'SX189.WAV'
p975
aS'SX279.WAV'
p976
aS'SX369.WAV'
p977
aS'SX9.WAV'
p978
aS'SX99.WAV'
p979
asS'MJEB0'
p980
(lp981
S'SA1.WAV'
p982
aS'SA2.WAV'
p983
aS'SI1286.WAV'
p984
aS'SI1916.WAV'
p985
aS'SI656.WAV'
p986
aS'SX170.WAV'
p987
aS'SX206.WAV'
p988
aS'SX26.WAV'
p989
aS'SX296.WAV'
p990
aS'SX386.WAV'
p991
asS'MBWM0'
p992
(lp993
S'SA1.WAV'
p994
aS'SA2.WAV'
p995
aS'SI1304.WAV'
p996
aS'SI1934.WAV'
p997
aS'SI674.WAV'
p998
aS'SX134.WAV'
p999
aS'SX224.WAV'
p1000
aS'SX314.WAV'
p1001
aS'SX404.WAV'
p1002
aS'SX44.WAV'
p1003
asS'MSRR0'
p1004
(lp1005
S'SA1.WAV'
p1006
aS'SA2.WAV'
p1007
aS'SI1131.WAV'
p1008
aS'SI1761.WAV'
p1009
aS'SI501.WAV'
p1010
aS'SX141.WAV'
p1011
aS'SX231.WAV'
p1012
aS'SX30.WAV'
p1013
aS'SX411.WAV'
p1014
aS'SX51.WAV'
p1015
asS'MEAL0'
p1016
(lp1017
S'SA1.WAV'
p1018
aS'SA2.WAV'
p1019
aS'SI1547.WAV'
p1020
aS'SI2177.WAV'
p1021
aS'SI917.WAV'
p1022
aS'SX107.WAV'
p1023
aS'SX197.WAV'
p1024
aS'SX287.WAV'
p1025
aS'SX347.WAV'
p1026
aS'SX377.WAV'
p1027
asS'MRKM0'
p1028
(lp1029
S'SA1.WAV'
p1030
aS'SA2.WAV'
p1031
aS'SI1267.WAV'
p1032
aS'SI1391.WAV'
p1033
aS'SI637.WAV'
p1034
aS'SX187.WAV'
p1035
aS'SX277.WAV'
p1036
aS'SX367.WAV'
p1037
aS'SX7.WAV'
p1038
aS'SX97.WAV'
p1039
asS'MPGR1'
p1040
(lp1041
S'SA1.WAV'
p1042
aS'SA2.WAV'
p1043
aS'SI1269.WAV'
p1044
aS'SI1499.WAV'
p1045
aS'SI2129.WAV'
p1046
aS'SX149.WAV'
p1047
aS'SX239.WAV'
p1048
aS'SX329.WAV'
p1049
aS'SX419.WAV'
p1050
aS'SX59.WAV'
p1051
asS'MPGR0'
p1052
(lp1053
S'SA1.WAV'
p1054
aS'SA2.WAV'
p1055
aS'SI1410.WAV'
p1056
aS'SI2040.WAV'
p1057
aS'SI780.WAV'
p1058
aS'SX150.WAV'
p1059
aS'SX240.WAV'
p1060
aS'SX330.WAV'
p1061
aS'SX420.WAV'
p1062
aS'SX60.WAV'
p1063
asS'MGMM0'
p1064
(lp1065
S'SA1.WAV'
p1066
aS'SA2.WAV'
p1067
aS'SI1129.WAV'
p1068
aS'SI1759.WAV'
p1069
aS'SI499.WAV'
p1070
aS'SX139.WAV'
p1071
aS'SX229.WAV'
p1072
aS'SX319.WAV'
p1073
aS'SX409.WAV'
p1074
aS'SX49.WAV'
p1075
asS'MJDA0'
p1076
(lp1077
S'SA1.WAV'
p1078
aS'SA2.WAV'
p1079
aS'SI1031.WAV'
p1080
aS'SI1661.WAV'
p1081
aS'SI2291.WAV'
p1082
aS'SX131.WAV'
p1083
aS'SX221.WAV'
p1084
aS'SX311.WAV'
p1085
aS'SX401.WAV'
p1086
aS'SX41.WAV'
p1087
asS'MWBT0'
p1088
(lp1089
S'SA1.WAV'
p1090
aS'SA2.WAV'
p1091
aS'SI1553.WAV'
p1092
aS'SI2183.WAV'
p1093
aS'SI923.WAV'
p1094
aS'SX113.WAV'
p1095
aS'SX203.WAV'
p1096
aS'SX23.WAV'
p1097
aS'SX293.WAV'
p1098
aS'SX383.WAV'
p1099
asS'MSAH1'
p1100
(lp1101
S'SA1.WAV'
p1102
aS'SA2.WAV'
p1103
aS'SI1049.WAV'
p1104
aS'SI1679.WAV'
p1105
aS'SI2309.WAV'
p1106
aS'SX149.WAV'
p1107
aS'SX239.WAV'
p1108
aS'SX329.WAV'
p1109
aS'SX419.WAV'
p1110
aS'SX59.WAV'
p1111
asS'MKRG0'
p1112
(lp1113
S'SA1.WAV'
p1114
aS'SA2.WAV'
p1115
aS'SI1491.WAV'
p1116
aS'SI2121.WAV'
p1117
aS'SI861.WAV'
p1118
aS'SX141.WAV'
p1119
aS'SX231.WAV'
p1120
aS'SX31.WAV'
p1121
aS'SX411.WAV'
p1122
aS'SX51.WAV'
p1123
asS'MSFV0'
p1124
(lp1125
S'SA1.WAV'
p1126
aS'SA2.WAV'
p1127
aS'SI1262.WAV'
p1128
aS'SI1892.WAV'
p1129
aS'SI632.WAV'
p1130
aS'SX182.WAV'
p1131
aS'SX272.WAV'
p1132
aS'SX362.WAV'
p1133
aS'SX452.WAV'
p1134
aS'SX92.WAV'
p1135
asS'MPAB0'
p1136
(lp1137
S'SA1.WAV'
p1138
aS'SA2.WAV'
p1139
aS'SI1103.WAV'
p1140
aS'SI1128.WAV'
p1141
aS'SI498.WAV'
p1142
aS'SX138.WAV'
p1143
aS'SX228.WAV'
p1144
aS'SX318.WAV'
p1145
aS'SX408.WAV'
p1146
aS'SX48.WAV'
p1147
asS'FSMM0'
p1148
(lp1149
S'SA1.WAV'
p1150
aS'SA2.WAV'
p1151
aS'SI1314.WAV'
p1152
aS'SI1944.WAV'
p1153
aS'SI684.WAV'
p1154
aS'SX144.WAV'
p1155
aS'SX234.WAV'
p1156
aS'SX324.WAV'
p1157
aS'SX414.WAV'
p1158
aS'SX54.WAV'
p1159
asS'MDSS1'
p1160
(lp1161
S'SA1.WAV'
p1162
aS'SA2.WAV'
p1163
aS'SI1327.WAV'
p1164
aS'SI1713.WAV'
p1165
aS'SI697.WAV'
p1166
aS'SX157.WAV'
p1167
aS'SX247.WAV'
p1168
aS'SX337.WAV'
p1169
aS'SX427.WAV'
p1170
aS'SX67.WAV'
p1171
asS'MJJM0'
p1172
(lp1173
S'SA1.WAV'
p1174
aS'SA2.WAV'
p1175
aS'SI1251.WAV'
p1176
aS'SI1457.WAV'
p1177
aS'SI827.WAV'
p1178
aS'SX107.WAV'
p1179
aS'SX17.WAV'
p1180
aS'SX197.WAV'
p1181
aS'SX287.WAV'
p1182
aS'SX377.WAV'
p1183
asS'MLJC0'
p1184
(lp1185
S'SA1.WAV'
p1186
aS'SA2.WAV'
p1187
aS'SI1225.WAV'
p1188
aS'SI1855.WAV'
p1189
aS'SI595.WAV'
p1190
aS'SX145.WAV'
p1191
aS'SX235.WAV'
p1192
aS'SX325.WAV'
p1193
aS'SX415.WAV'
p1194
aS'SX55.WAV'
p1195
asS'MRGG0'
p1196
(lp1197
S'SA1.WAV'
p1198
aS'SA2.WAV'
p1199
aS'SI1199.WAV'
p1200
aS'SI1829.WAV'
p1201
aS'SI569.WAV'
p1202
aS'SX119.WAV'
p1203
aS'SX209.WAV'
p1204
aS'SX29.WAV'
p1205
aS'SX299.WAV'
p1206
aS'SX389.WAV'
p1207
asS'MJHI0'
p1208
(lp1209
S'SA1.WAV'
p1210
aS'SA2.WAV'
p1211
aS'SI1328.WAV'
p1212
aS'SI555.WAV'
p1213
aS'SI698.WAV'
p1214
aS'SX158.WAV'
p1215
aS'SX248.WAV'
p1216
aS'SX338.WAV'
p1217
aS'SX428.WAV'
p1218
aS'SX68.WAV'
p1219
asS'MJRF0'
p1220
(lp1221
S'SA1.WAV'
p1222
aS'SA2.WAV'
p1223
aS'SI1114.WAV'
p1224
aS'SI2081.WAV'
p1225
aS'SI821.WAV'
p1226
aS'SX101.WAV'
p1227
aS'SX11.WAV'
p1228
aS'SX191.WAV'
p1229
aS'SX281.WAV'
p1230
aS'SX371.WAV'
p1231
asS'MKCH0'
p1232
(lp1233
S'SA1.WAV'
p1234
aS'SA2.WAV'
p1235
aS'SI1378.WAV'
p1236
aS'SI1425.WAV'
p1237
aS'SI2008.WAV'
p1238
aS'SX118.WAV'
p1239
aS'SX208.WAV'
p1240
aS'SX28.WAV'
p1241
aS'SX298.WAV'
p1242
aS'SX388.WAV'
p1243
asS'FSDJ0'
p1244
(lp1245
S'SA1.WAV'
p1246
aS'SA2.WAV'
p1247
aS'SI1115.WAV'
p1248
aS'SI1745.WAV'
p1249
aS'SI485.WAV'
p1250
aS'SX125.WAV'
p1251
aS'SX215.WAV'
p1252
aS'SX305.WAV'
p1253
aS'SX35.WAV'
p1254
aS'SX395.WAV'
p1255
asS'FPKT0'
p1256
(lp1257
S'SA1.WAV'
p1258
aS'SA2.WAV'
p1259
aS'SI1538.WAV'
p1260
aS'SI2168.WAV'
p1261
aS'SI908.WAV'
p1262
aS'SX188.WAV'
p1263
aS'SX278.WAV'
p1264
aS'SX368.WAV'
p1265
aS'SX8.WAV'
p1266
aS'SX98.WAV'
p1267
asS'FLET0'
p1268
(lp1269
S'SA1.WAV'
p1270
aS'SA2.WAV'
p1271
aS'SI1137.WAV'
p1272
aS'SI1767.WAV'
p1273
aS'SI507.WAV'
p1274
aS'SX147.WAV'
p1275
aS'SX237.WAV'
p1276
aS'SX277.WAV'
p1277
aS'SX417.WAV'
p1278
aS'SX57.WAV'
p1279
asS'FAEM0'
p1280
(lp1281
S'SA1.WAV'
p1282
aS'SA2.WAV'
p1283
aS'SI1392.WAV'
p1284
aS'SI2022.WAV'
p1285
aS'SI762.WAV'
p1286
aS'SX132.WAV'
p1287
aS'SX222.WAV'
p1288
aS'SX312.WAV'
p1289
aS'SX402.WAV'
p1290
aS'SX42.WAV'
p1291
asS'MJDH0'
p1292
(lp1293
S'SA1.WAV'
p1294
aS'SA2.WAV'
p1295
aS'SI1354.WAV'
p1296
aS'SI1984.WAV'
p1297
aS'SI724.WAV'
p1298
aS'SX184.WAV'
p1299
aS'SX274.WAV'
p1300
aS'SX364.WAV'
p1301
aS'SX4.WAV'
p1302
aS'SX94.WAV'
p1303
asS'MJDM0'
p1304
(lp1305
S'SA1.WAV'
p1306
aS'SA2.WAV'
p1307
aS'SI1340.WAV'
p1308
aS'SI1937.WAV'
p1309
aS'SI974.WAV'
p1310
aS'SX170.WAV'
p1311
aS'SX260.WAV'
p1312
aS'SX350.WAV'
p1313
aS'SX440.WAV'
p1314
aS'SX80.WAV'
p1315
asS'MRCW0'
p1316
(lp1317
S'SA1.WAV'
p1318
aS'SA2.WAV'
p1319
aS'SI1371.WAV'
p1320
aS'SI2001.WAV'
p1321
aS'SI741.WAV'
p1322
aS'SX111.WAV'
p1323
aS'SX201.WAV'
p1324
aS'SX21.WAV'
p1325
aS'SX291.WAV'
p1326
aS'SX381.WAV'
p1327
asS'FLTM0'
p1328
(lp1329
S'SA1.WAV'
p1330
aS'SA2.WAV'
p1331
aS'SI1070.WAV'
p1332
aS'SI1700.WAV'
p1333
aS'SI2330.WAV'
p1334
aS'SX170.WAV'
p1335
aS'SX260.WAV'
p1336
aS'SX350.WAV'
p1337
aS'SX440.WAV'
p1338
aS'SX80.WAV'
p1339
asS'MTLC0'
p1340
(lp1341
S'SA1.WAV'
p1342
aS'SA2.WAV'
p1343
aS'SI1313.WAV'
p1344
aS'SI1477.WAV'
p1345
aS'SI847.WAV'
p1346
aS'SX127.WAV'
p1347
aS'SX217.WAV'
p1348
aS'SX307.WAV'
p1349
aS'SX37.WAV'
p1350
aS'SX397.WAV'
p1351
asS'MJXL0'
p1352
(lp1353
S'SA1.WAV'
p1354
aS'SA2.WAV'
p1355
aS'SI1172.WAV'
p1356
aS'SI1795.WAV'
p1357
aS'SI542.WAV'
p1358
aS'SX182.WAV'
p1359
aS'SX272.WAV'
p1360
aS'SX362.WAV'
p1361
aS'SX452.WAV'
p1362
aS'SX92.WAV'
p1363
asS'MRDD0'
p1364
(lp1365
S'SA1.WAV'
p1366
aS'SA2.WAV'
p1367
aS'SI1050.WAV'
p1368
aS'SI1680.WAV'
p1369
aS'SI2310.WAV'
p1370
aS'SX150.WAV'
p1371
aS'SX240.WAV'
p1372
aS'SX277.WAV'
p1373
aS'SX330.WAV'
p1374
aS'SX60.WAV'
p1375
asS'MWEW0'
p1376
(lp1377
S'SA1.WAV'
p1378
aS'SA2.WAV'
p1379
aS'SI1361.WAV'
p1380
aS'SI1991.WAV'
p1381
aS'SI731.WAV'
p1382
aS'SX101.WAV'
p1383
aS'SX11.WAV'
p1384
aS'SX191.WAV'
p1385
aS'SX281.WAV'
p1386
aS'SX371.WAV'
p1387
asS'MJWG0'
p1388
(lp1389
S'SA1.WAV'
p1390
aS'SA2.WAV'
p1391
aS'SI2155.WAV'
p1392
aS'SI813.WAV'
p1393
aS'SI895.WAV'
p1394
aS'SX175.WAV'
p1395
aS'SX265.WAV'
p1396
aS'SX355.WAV'
p1397
aS'SX445.WAV'
p1398
aS'SX85.WAV'
p1399
asS'MTKD0'
p1400
(lp1401
S'SA1.WAV'
p1402
aS'SA2.WAV'
p1403
aS'SI1187.WAV'
p1404
aS'SI1817.WAV'
p1405
aS'SI630.WAV'
p1406
aS'SX107.WAV'
p1407
aS'SX17.WAV'
p1408
aS'SX197.WAV'
p1409
aS'SX287.WAV'
p1410
aS'SX377.WAV'
p1411
asS'MMAG0'
p1412
(lp1413
S'SA1.WAV'
p1414
aS'SA2.WAV'
p1415
aS'SI1126.WAV'
p1416
aS'SI1756.WAV'
p1417
aS'SI496.WAV'
p1418
aS'SX136.WAV'
p1419
aS'SX226.WAV'
p1420
aS'SX316.WAV'
p1421
aS'SX406.WAV'
p1422
aS'SX46.WAV'
p1423
asS'MHMG0'
p1424
(lp1425
S'SA1.WAV'
p1426
aS'SA2.WAV'
p1427
aS'SI1365.WAV'
p1428
aS'SI1995.WAV'
p1429
aS'SI735.WAV'
p1430
aS'SX105.WAV'
p1431
aS'SX15.WAV'
p1432
aS'SX195.WAV'
p1433
aS'SX285.WAV'
p1434
aS'SX375.WAV'
p1435
asS'MRDM0'
p1436
(lp1437
S'SA1.WAV'
p1438
aS'SA2.WAV'
p1439
aS'SI1044.WAV'
p1440
aS'SI1595.WAV'
p1441
aS'SI965.WAV'
p1442
aS'SX155.WAV'
p1443
aS'SX245.WAV'
p1444
aS'SX335.WAV'
p1445
aS'SX425.WAV'
p1446
aS'SX65.WAV'
p1447
asS'FJWB0'
p1448
(lp1449
S'SA1.WAV'
p1450
aS'SA2.WAV'
p1451
aS'SI1265.WAV'
p1452
aS'SI635.WAV'
p1453
aS'SI992.WAV'
p1454
aS'SX185.WAV'
p1455
aS'SX275.WAV'
p1456
aS'SX365.WAV'
p1457
aS'SX5.WAV'
p1458
aS'SX95.WAV'
p1459
asS'MDBB0'
p1460
(lp1461
S'SA1.WAV'
p1462
aS'SA2.WAV'
p1463
aS'SI1195.WAV'
p1464
aS'SI1825.WAV'
p1465
aS'SI565.WAV'
p1466
aS'SX115.WAV'
p1467
aS'SX205.WAV'
p1468
aS'SX25.WAV'
p1469
aS'SX295.WAV'
p1470
aS'SX385.WAV'
p1471
asS'MNJM0'
p1472
(lp1473
S'SA1.WAV'
p1474
aS'SA2.WAV'
p1475
aS'SI1580.WAV'
p1476
aS'SI2210.WAV'
p1477
aS'SI950.WAV'
p1478
aS'SX140.WAV'
p1479
aS'SX230.WAV'
p1480
aS'SX320.WAV'
p1481
aS'SX410.WAV'
p1482
aS'SX50.WAV'
p1483
asS'MMGG0'
p1484
(lp1485
S'SA1.WAV'
p1486
aS'SA2.WAV'
p1487
aS'SI1079.WAV'
p1488
aS'SI1709.WAV'
p1489
aS'SI2339.WAV'
p1490
aS'SX179.WAV'
p1491
aS'SX269.WAV'
p1492
aS'SX359.WAV'
p1493
aS'SX449.WAV'
p1494
aS'SX89.WAV'
p1495
asS'MDMA0'
p1496
(lp1497
S'SA1.WAV'
p1498
aS'SA2.WAV'
p1499
aS'SI1238.WAV'
p1500
aS'SI1430.WAV'
p1501
aS'SI2060.WAV'
p1502
aS'SX170.WAV'
p1503
aS'SX260.WAV'
p1504
aS'SX350.WAV'
p1505
aS'SX440.WAV'
p1506
aS'SX80.WAV'
p1507
asS'MJFC0'
p1508
(lp1509
S'SA1.WAV'
p1510
aS'SA2.WAV'
p1511
aS'SI1033.WAV'
p1512
aS'SI1663.WAV'
p1513
aS'SI2293.WAV'
p1514
aS'SX133.WAV'
p1515
aS'SX223.WAV'
p1516
aS'SX313.WAV'
p1517
aS'SX403.WAV'
p1518
aS'SX43.WAV'
p1519
asS'MSAS0'
p1520
(lp1521
S'SA1.WAV'
p1522
aS'SA2.WAV'
p1523
aS'SI1376.WAV'
p1524
aS'SI2006.WAV'
p1525
aS'SI746.WAV'
p1526
aS'SX116.WAV'
p1527
aS'SX206.WAV'
p1528
aS'SX26.WAV'
p1529
aS'SX296.WAV'
p1530
aS'SX386.WAV'
p1531
asS'FTBW0'
p1532
(lp1533
S'SA1.WAV'
p1534
aS'SA2.WAV'
p1535
aS'SI1345.WAV'
p1536
aS'SI1975.WAV'
p1537
aS'SI715.WAV'
p1538
aS'SX175.WAV'
p1539
aS'SX265.WAV'
p1540
aS'SX355.WAV'
p1541
aS'SX445.WAV'
p1542
aS'SX85.WAV'
p1543
asS'MGES0'
p1544
(lp1545
S'SA1.WAV'
p1546
aS'SA2.WAV'
p1547
aS'SI1481.WAV'
p1548
aS'SI2111.WAV'
p1549
aS'SI851.WAV'
p1550
aS'SX131.WAV'
p1551
aS'SX221.WAV'
p1552
aS'SX311.WAV'
p1553
aS'SX401.WAV'
p1554
aS'SX41.WAV'
p1555
asS'FBCH0'
p1556
(lp1557
S'SA1.WAV'
p1558
aS'SA2.WAV'
p1559
aS'SI1586.WAV'
p1560
aS'SI956.WAV'
p1561
aS'SI959.WAV'
p1562
aS'SX146.WAV'
p1563
aS'SX236.WAV'
p1564
aS'SX326.WAV'
p1565
aS'SX416.WAV'
p1566
aS'SX56.WAV'
p1567
asS'MMRP0'
p1568
(lp1569
S'SA1.WAV'
p1570
aS'SA2.WAV'
p1571
aS'SI2034.WAV'
p1572
aS'SI717.WAV'
p1573
aS'SI774.WAV'
p1574
aS'SX144.WAV'
p1575
aS'SX234.WAV'
p1576
aS'SX324.WAV'
p1577
aS'SX414.WAV'
p1578
aS'SX54.WAV'
p1579
asS'FKDE0'
p1580
(lp1581
S'SA1.WAV'
p1582
aS'SA2.WAV'
p1583
aS'SI1141.WAV'
p1584
aS'SI1771.WAV'
p1585
aS'SI2221.WAV'
p1586
aS'SX151.WAV'
p1587
aS'SX241.WAV'
p1588
aS'SX331.WAV'
p1589
aS'SX421.WAV'
p1590
aS'SX61.WAV'
p1591
asS'MDWM0'
p1592
(lp1593
S'SA1.WAV'
p1594
aS'SA2.WAV'
p1595
aS'SI1546.WAV'
p1596
aS'SI2176.WAV'
p1597
aS'SI916.WAV'
p1598
aS'SX106.WAV'
p1599
aS'SX16.WAV'
p1600
aS'SX286.WAV'
p1601
aS'SX376.WAV'
p1602
aS'SX433.WAV'
p1603
asS'MTPP0'
p1604
(lp1605
S'SA1.WAV'
p1606
aS'SA2.WAV'
p1607
aS'SI1508.WAV'
p1608
aS'SI2138.WAV'
p1609
aS'SI878.WAV'
p1610
aS'SX158.WAV'
p1611
aS'SX248.WAV'
p1612
aS'SX338.WAV'
p1613
aS'SX428.WAV'
p1614
aS'SX68.WAV'
p1615
asS'MFMC0'
p1616
(lp1617
S'SA1.WAV'
p1618
aS'SA2.WAV'
p1619
aS'SI1132.WAV'
p1620
aS'SI1762.WAV'
p1621
aS'SI502.WAV'
p1622
aS'SX142.WAV'
p1623
aS'SX232.WAV'
p1624
aS'SX322.WAV'
p1625
aS'SX412.WAV'
p1626
aS'SX52.WAV'
p1627
asS'MKLW0'
p1628
(lp1629
S'SA1.WAV'
p1630
aS'SA2.WAV'
p1631
aS'SI1571.WAV'
p1632
aS'SI1844.WAV'
p1633
aS'SI2201.WAV'
p1634
aS'SX131.WAV'
p1635
aS'SX221.WAV'
p1636
aS'SX311.WAV'
p1637
aS'SX401.WAV'
p1638
aS'SX41.WAV'
p1639
asS'MDAB0'
p1640
(lp1641
S'SA1.WAV'
p1642
aS'SA2.WAV'
p1643
aS'SI1039.WAV'
p1644
aS'SI1669.WAV'
p1645
aS'SI2299.WAV'
p1646
aS'SX139.WAV'
p1647
aS'SX229.WAV'
p1648
aS'SX319.WAV'
p1649
aS'SX409.WAV'
p1650
aS'SX49.WAV'
p1651
asS'MGXP0'
p1652
(lp1653
S'SA1.WAV'
p1654
aS'SA2.WAV'
p1655
aS'SI1087.WAV'
p1656
aS'SI457.WAV'
p1657
aS'SI525.WAV'
p1658
aS'SX187.WAV'
p1659
aS'SX277.WAV'
p1660
aS'SX367.WAV'
p1661
aS'SX7.WAV'
p1662
aS'SX97.WAV'
p1663
asS'FCRZ0'
p1664
(lp1665
S'SA1.WAV'
p1666
aS'SA2.WAV'
p1667
aS'SI1913.WAV'
p1668
aS'SI2053.WAV'
p1669
aS'SI793.WAV'
p1670
aS'SX163.WAV'
p1671
aS'SX253.WAV'
p1672
aS'SX343.WAV'
p1673
aS'SX433.WAV'
p1674
aS'SX73.WAV'
p1675
asS'FAJW0'
p1676
(lp1677
S'SA1.WAV'
p1678
aS'SA2.WAV'
p1679
aS'SI1263.WAV'
p1680
aS'SI1893.WAV'
p1681
aS'SI633.WAV'
p1682
aS'SX183.WAV'
p1683
aS'SX273.WAV'
p1684
aS'SX3.WAV'
p1685
aS'SX363.WAV'
p1686
aS'SX93.WAV'
p1687
asS'FCAG0'
p1688
(lp1689
S'SA1.WAV'
p1690
aS'SA2.WAV'
p1691
aS'SI1503.WAV'
p1692
aS'SI1641.WAV'
p1693
aS'SI2133.WAV'
p1694
aS'SX153.WAV'
p1695
aS'SX243.WAV'
p1696
aS'SX333.WAV'
p1697
aS'SX423.WAV'
p1698
aS'SX63.WAV'
p1699
asS'MJTH0'
p1700
(lp1701
S'SA1.WAV'
p1702
aS'SA2.WAV'
p1703
aS'SI1296.WAV'
p1704
aS'SI1926.WAV'
p1705
aS'SI666.WAV'
p1706
aS'SX126.WAV'
p1707
aS'SX216.WAV'
p1708
aS'SX306.WAV'
p1709
aS'SX36.WAV'
p1710
aS'SX396.WAV'
p1711
asS'MBDG0'
p1712
(lp1713
S'SA1.WAV'
p1714
aS'SA2.WAV'
p1715
aS'SI1463.WAV'
p1716
aS'SI2093.WAV'
p1717
aS'SI833.WAV'
p1718
aS'SX113.WAV'
p1719
aS'SX203.WAV'
p1720
aS'SX23.WAV'
p1721
aS'SX293.WAV'
p1722
aS'SX383.WAV'
p1723
asS'MRSP0'
p1724
(lp1725
S'SA1.WAV'
p1726
aS'SA2.WAV'
p1727
aS'SI1429.WAV'
p1728
aS'SI2059.WAV'
p1729
aS'SI799.WAV'
p1730
aS'SX169.WAV'
p1731
aS'SX196.WAV'
p1732
aS'SX259.WAV'
p1733
aS'SX439.WAV'
p1734
aS'SX79.WAV'
p1735
asS'MTRR0'
p1736
(lp1737
S'SA1.WAV'
p1738
aS'SA2.WAV'
p1739
aS'SI1548.WAV'
p1740
aS'SI2178.WAV'
p1741
aS'SI918.WAV'
p1742
aS'SX108.WAV'
p1743
aS'SX18.WAV'
p1744
aS'SX198.WAV'
p1745
aS'SX288.WAV'
p1746
aS'SX378.WAV'
p1747
asS'MEWM0'
p1748
(lp1749
S'SA1.WAV'
p1750
aS'SA2.WAV'
p1751
aS'SI1348.WAV'
p1752
aS'SI1978.WAV'
p1753
aS'SI718.WAV'
p1754
aS'SX178.WAV'
p1755
aS'SX268.WAV'
p1756
aS'SX358.WAV'
p1757
aS'SX448.WAV'
p1758
aS'SX88.WAV'
p1759
asS'MCEW0'
p1760
(lp1761
S'SA1.WAV'
p1762
aS'SA2.WAV'
p1763
aS'SI1442.WAV'
p1764
aS'SI2072.WAV'
p1765
aS'SI812.WAV'
p1766
aS'SX182.WAV'
p1767
aS'SX272.WAV'
p1768
aS'SX362.WAV'
p1769
aS'SX452.WAV'
p1770
aS'SX92.WAV'
p1771
asS'MJPG0'
p1772
(lp1773
S'SA1.WAV'
p1774
aS'SA2.WAV'
p1775
aS'SI1191.WAV'
p1776
aS'SI1821.WAV'
p1777
aS'SI561.WAV'
p1778
aS'SX111.WAV'
p1779
aS'SX201.WAV'
p1780
aS'SX21.WAV'
p1781
aS'SX291.WAV'
p1782
aS'SX381.WAV'
p1783
asS'MJAR0'
p1784
(lp1785
S'SA1.WAV'
p1786
aS'SA2.WAV'
p1787
aS'SI1988.WAV'
p1788
aS'SI2247.WAV'
p1789
aS'SI728.WAV'
p1790
aS'SX188.WAV'
p1791
aS'SX278.WAV'
p1792
aS'SX368.WAV'
p1793
aS'SX8.WAV'
p1794
aS'SX98.WAV'
p1795
asS'MKLN0'
p1796
(lp1797
S'SA1.WAV'
p1798
aS'SA2.WAV'
p1799
aS'SI1598.WAV'
p1800
aS'SI2228.WAV'
p1801
aS'SI968.WAV'
p1802
aS'SX158.WAV'
p1803
aS'SX248.WAV'
p1804
aS'SX338.WAV'
p1805
aS'SX428.WAV'
p1806
aS'SX68.WAV'
p1807
asS'MDLD0'
p1808
(lp1809
S'SA1.WAV'
p1810
aS'SA2.WAV'
p1811
aS'SI1543.WAV'
p1812
aS'SI2173.WAV'
p1813
aS'SI913.WAV'
p1814
aS'SX103.WAV'
p1815
aS'SX13.WAV'
p1816
aS'SX193.WAV'
p1817
aS'SX283.WAV'
p1818
aS'SX373.WAV'
p1819
asS'FMEM0'
p1820
(lp1821
S'SA1.WAV'
p1822
aS'SA2.WAV'
p1823
aS'SI1377.WAV'
p1824
aS'SI2007.WAV'
p1825
aS'SI747.WAV'
p1826
aS'SX117.WAV'
p1827
aS'SX207.WAV'
p1828
aS'SX297.WAV'
p1829
aS'SX333.WAV'
p1830
aS'SX387.WAV'
p1831
asS'MTMR0'
p1832
(lp1833
S'SA1.WAV'
p1834
aS'SA2.WAV'
p1835
aS'SI1303.WAV'
p1836
aS'SI1933.WAV'
p1837
aS'SI673.WAV'
p1838
aS'SX133.WAV'
p1839
aS'SX223.WAV'
p1840
aS'SX313.WAV'
p1841
aS'SX403.WAV'
p1842
aS'SX43.WAV'
p1843
asS'MPRB0'
p1844
(lp1845
S'SA1.WAV'
p1846
aS'SA2.WAV'
p1847
aS'SI1205.WAV'
p1848
aS'SI1215.WAV'
p1849
aS'SI575.WAV'
p1850
aS'SX125.WAV'
p1851
aS'SX215.WAV'
p1852
aS'SX305.WAV'
p1853
aS'SX35.WAV'
p1854
aS'SX395.WAV'
p1855
asS'FMAF0'
p1856
(lp1857
S'SA1.WAV'
p1858
aS'SA2.WAV'
p1859
aS'SI1459.WAV'
p1860
aS'SI2089.WAV'
p1861
aS'SI829.WAV'
p1862
aS'SX109.WAV'
p1863
aS'SX19.WAV'
p1864
aS'SX199.WAV'
p1865
aS'SX289.WAV'
p1866
aS'SX379.WAV'
p1867
asS'MDBP0'
p1868
(lp1869
S'SA1.WAV'
p1870
aS'SA2.WAV'
p1871
aS'SI1158.WAV'
p1872
aS'SI1788.WAV'
p1873
aS'SI528.WAV'
p1874
aS'SX168.WAV'
p1875
aS'SX258.WAV'
p1876
aS'SX348.WAV'
p1877
aS'SX438.WAV'
p1878
aS'SX78.WAV'
p1879
asS'FSJG0'
p1880
(lp1881
S'SA1.WAV'
p1882
aS'SA2.WAV'
p1883
aS'SI1570.WAV'
p1884
aS'SI2200.WAV'
p1885
aS'SI940.WAV'
p1886
aS'SX130.WAV'
p1887
aS'SX220.WAV'
p1888
aS'SX310.WAV'
p1889
aS'SX40.WAV'
p1890
aS'SX400.WAV'
p1891
asS'MMWS1'
p1892
(lp1893
S'SA1.WAV'
p1894
aS'SA2.WAV'
p1895
aS'SI1071.WAV'
p1896
aS'SI1701.WAV'
p1897
aS'SI2331.WAV'
p1898
aS'SX261.WAV'
p1899
aS'SX27.WAV'
p1900
aS'SX351.WAV'
p1901
aS'SX441.WAV'
p1902
aS'SX81.WAV'
p1903
asS'MJDE0'
p1904
(lp1905
S'SA1.WAV'
p1906
aS'SA2.WAV'
p1907
aS'SI1120.WAV'
p1908
aS'SI463.WAV'
p1909
aS'SI490.WAV'
p1910
aS'SX130.WAV'
p1911
aS'SX220.WAV'
p1912
aS'SX310.WAV'
p1913
aS'SX40.WAV'
p1914
aS'SX400.WAV'
p1915
asS'MRWS0'
p1916
(lp1917
S'SA1.WAV'
p1918
aS'SA2.WAV'
p1919
aS'SI1102.WAV'
p1920
aS'SI1732.WAV'
p1921
aS'SI472.WAV'
p1922
aS'SX112.WAV'
p1923
aS'SX202.WAV'
p1924
aS'SX22.WAV'
p1925
aS'SX292.WAV'
p1926
aS'SX382.WAV'
p1927
asS'MRWS1'
p1928
(lp1929
S'SA1.WAV'
p1930
aS'SA2.WAV'
p1931
aS'SI1130.WAV'
p1932
aS'SI1496.WAV'
p1933
aS'SI500.WAV'
p1934
aS'SX140.WAV'
p1935
aS'SX230.WAV'
p1936
aS'SX320.WAV'
p1937
aS'SX410.WAV'
p1938
aS'SX50.WAV'
p1939
asS'MPLB0'
p1940
(lp1941
S'SA1.WAV'
p1942
aS'SA2.WAV'
p1943
aS'SI1394.WAV'
p1944
aS'SI2024.WAV'
p1945
aS'SI764.WAV'
p1946
aS'SX134.WAV'
p1947
aS'SX224.WAV'
p1948
aS'SX314.WAV'
p1949
aS'SX404.WAV'
p1950
aS'SX44.WAV'
p1951
asS'MKAH0'
p1952
(lp1953
S'SA1.WAV'
p1954
aS'SA2.WAV'
p1955
aS'SI1528.WAV'
p1956
aS'SI2158.WAV'
p1957
aS'SI898.WAV'
p1958
aS'SX178.WAV'
p1959
aS'SX268.WAV'
p1960
aS'SX358.WAV'
p1961
aS'SX448.WAV'
p1962
aS'SX88.WAV'
p1963
asS'MTJM0'
p1964
(lp1965
S'SA1.WAV'
p1966
aS'SA2.WAV'
p1967
aS'SI1226.WAV'
p1968
aS'SI1856.WAV'
p1969
aS'SI655.WAV'
p1970
aS'SX146.WAV'
p1971
aS'SX236.WAV'
p1972
aS'SX326.WAV'
p1973
aS'SX416.WAV'
p1974
aS'SX56.WAV'
p1975
asS'FMKF0'
p1976
(lp1977
S'SA1.WAV'
p1978
aS'SA2.WAV'
p1979
aS'SI1018.WAV'
p1980
aS'SI1536.WAV'
p1981
aS'SI906.WAV'
p1982
aS'SX186.WAV'
p1983
aS'SX276.WAV'
p1984
aS'SX366.WAV'
p1985
aS'SX6.WAV'
p1986
aS'SX96.WAV'
p1987
asS'FNLP0'
p1988
(lp1989
S'SA1.WAV'
p1990
aS'SA2.WAV'
p1991
aS'SI1308.WAV'
p1992
aS'SI1938.WAV'
p1993
aS'SI678.WAV'
p1994
aS'SX138.WAV'
p1995
aS'SX228.WAV'
p1996
aS'SX318.WAV'
p1997
aS'SX408.WAV'
p1998
aS'SX48.WAV'
p1999
asS'MRPC1'
p2000
(lp2001
S'SA1.WAV'
p2002
aS'SA2.WAV'
p2003
aS'SI1482.WAV'
p2004
aS'SI2026.WAV'
p2005
aS'SI2112.WAV'
p2006
aS'SX132.WAV'
p2007
aS'SX222.WAV'
p2008
aS'SX312.WAV'
p2009
aS'SX402.WAV'
p2010
aS'SX42.WAV'
p2011
asS'MRPC0'
p2012
(lp2013
S'SA1.WAV'
p2014
aS'SA2.WAV'
p2015
aS'SI1753.WAV'
p2016
aS'SI493.WAV'
p2017
aS'SI933.WAV'
p2018
aS'SX133.WAV'
p2019
aS'SX223.WAV'
p2020
aS'SX313.WAV'
p2021
aS'SX403.WAV'
p2022
aS'SX43.WAV'
p2023
asS'MTBC0'
p2024
(lp2025
S'SA1.WAV'
p2026
aS'SA2.WAV'
p2027
aS'SI1173.WAV'
p2028
aS'SI1803.WAV'
p2029
aS'SI543.WAV'
p2030
aS'SX183.WAV'
p2031
aS'SX273.WAV'
p2032
aS'SX347.WAV'
p2033
aS'SX363.WAV'
p2034
aS'SX93.WAV'
p2035
asS'MHPG0'
p2036
(lp2037
S'SA1.WAV'
p2038
aS'SA2.WAV'
p2039
aS'SI1090.WAV'
p2040
aS'SI1720.WAV'
p2041
aS'SI460.WAV'
p2042
aS'SX10.WAV'
p2043
aS'SX100.WAV'
p2044
aS'SX190.WAV'
p2045
aS'SX280.WAV'
p2046
aS'SX370.WAV'
p2047
asS'FJHK0'
p2048
(lp2049
S'SA1.WAV'
p2050
aS'SA2.WAV'
p2051
aS'SI1022.WAV'
p2052
aS'SI1652.WAV'
p2053
aS'SI2282.WAV'
p2054
aS'SX122.WAV'
p2055
aS'SX212.WAV'
p2056
aS'SX302.WAV'
p2057
aS'SX32.WAV'
p2058
aS'SX392.WAV'
p2059
asS'MMDM0'
p2060
(lp2061
S'SA1.WAV'
p2062
aS'SA2.WAV'
p2063
aS'SI1311.WAV'
p2064
aS'SI1941.WAV'
p2065
aS'SI681.WAV'
p2066
aS'SX141.WAV'
p2067
aS'SX231.WAV'
p2068
aS'SX321.WAV'
p2069
aS'SX411.WAV'
p2070
aS'SX51.WAV'
p2071
asS'MMDM1'
p2072
(lp2073
S'SA1.WAV'
p2074
aS'SA2.WAV'
p2075
aS'SI1650.WAV'
p2076
aS'SI2043.WAV'
p2077
aS'SI783.WAV'
p2078
aS'SX153.WAV'
p2079
aS'SX243.WAV'
p2080
aS'SX333.WAV'
p2081
aS'SX423.WAV'
p2082
aS'SX63.WAV'
p2083
asS'MMDM2'
p2084
(lp2085
S'SA1.WAV'
p2086
aS'SA2.WAV'
p2087
aS'SI1452.WAV'
p2088
aS'SI1555.WAV'
p2089
aS'SI2082.WAV'
p2090
aS'SX102.WAV'
p2091
aS'SX12.WAV'
p2092
aS'SX192.WAV'
p2093
aS'SX282.WAV'
p2094
aS'SX372.WAV'
p2095
asS'MSDS0'
p2096
(lp2097
S'SA1.WAV'
p2098
aS'SA2.WAV'
p2099
aS'SI1077.WAV'
p2100
aS'SI1707.WAV'
p2101
aS'SI2337.WAV'
p2102
aS'SX177.WAV'
p2103
aS'SX267.WAV'
p2104
aS'SX357.WAV'
p2105
aS'SX447.WAV'
p2106
aS'SX87.WAV'
p2107
asS'FADG0'
p2108
(lp2109
S'SA1.WAV'
p2110
aS'SA2.WAV'
p2111
aS'SI1279.WAV'
p2112
aS'SI1909.WAV'
p2113
aS'SI649.WAV'
p2114
aS'SX109.WAV'
p2115
aS'SX19.WAV'
p2116
aS'SX199.WAV'
p2117
aS'SX289.WAV'
p2118
aS'SX379.WAV'
p2119
asS'MRRK0'
p2120
(lp2121
S'SA1.WAV'
p2122
aS'SA2.WAV'
p2123
aS'SI1288.WAV'
p2124
aS'SI1716.WAV'
p2125
aS'SI1918.WAV'
p2126
aS'SX118.WAV'
p2127
aS'SX208.WAV'
p2128
aS'SX28.WAV'
p2129
aS'SX298.WAV'
p2130
aS'SX388.WAV'
p2131
asS'FKAA0'
p2132
(lp2133
S'SA1.WAV'
p2134
aS'SA2.WAV'
p2135
aS'SI1208.WAV'
p2136
aS'SI1838.WAV'
p2137
aS'SI578.WAV'
p2138
aS'SX128.WAV'
p2139
aS'SX218.WAV'
p2140
aS'SX308.WAV'
p2141
aS'SX38.WAV'
p2142
aS'SX398.WAV'
p2143
asS'MRMB0'
p2144
(lp2145
S'SA1.WAV'
p2146
aS'SA2.WAV'
p2147
aS'SI1581.WAV'
p2148
aS'SI2211.WAV'
p2149
aS'SI951.WAV'
p2150
aS'SX141.WAV'
p2151
aS'SX231.WAV'
p2152
aS'SX321.WAV'
p2153
aS'SX411.WAV'
p2154
aS'SX51.WAV'
p2155
asS'FDAC1'
p2156
(lp2157
S'SA1.WAV'
p2158
aS'SA2.WAV'
p2159
aS'SI1474.WAV'
p2160
aS'SI2104.WAV'
p2161
aS'SI844.WAV'
p2162
aS'SX124.WAV'
p2163
aS'SX214.WAV'
p2164
aS'SX304.WAV'
p2165
aS'SX34.WAV'
p2166
aS'SX394.WAV'
p2167
asS'FEEH0'
p2168
(lp2169
S'SA1.WAV'
p2170
aS'SA2.WAV'
p2171
aS'SI1112.WAV'
p2172
aS'SI1742.WAV'
p2173
aS'SI471.WAV'
p2174
aS'SX122.WAV'
p2175
aS'SX212.WAV'
p2176
aS'SX302.WAV'
p2177
aS'SX32.WAV'
p2178
aS'SX392.WAV'
p2179
asS'MWRP0'
p2180
(lp2181
S'SA1.WAV'
p2182
aS'SA2.WAV'
p2183
aS'SI1443.WAV'
p2184
aS'SI1525.WAV'
p2185
aS'SI2073.WAV'
p2186
aS'SX183.WAV'
p2187
aS'SX273.WAV'
p2188
aS'SX3.WAV'
p2189
aS'SX363.WAV'
p2190
aS'SX93.WAV'
p2191
asS'MEFG0'
p2192
(lp2193
S'SA1.WAV'
p2194
aS'SA2.WAV'
p2195
aS'SI465.WAV'
p2196
aS'SI491.WAV'
p2197
aS'SI598.WAV'
p2198
aS'SX105.WAV'
p2199
aS'SX15.WAV'
p2200
aS'SX195.WAV'
p2201
aS'SX285.WAV'
p2202
aS'SX375.WAV'
p2203
asS'FLAC0'
p2204
(lp2205
S'SA1.WAV'
p2206
aS'SA2.WAV'
p2207
aS'SI1339.WAV'
p2208
aS'SI2161.WAV'
p2209
aS'SI901.WAV'
p2210
aS'SX181.WAV'
p2211
aS'SX271.WAV'
p2212
aS'SX361.WAV'
p2213
aS'SX451.WAV'
p2214
aS'SX91.WAV'
p2215
asS'MCTW0'
p2216
(lp2217
S'SA1.WAV'
p2218
aS'SA2.WAV'
p2219
aS'SI1373.WAV'
p2220
aS'SI2003.WAV'
p2221
aS'SI743.WAV'
p2222
aS'SX113.WAV'
p2223
aS'SX203.WAV'
p2224
aS'SX23.WAV'
p2225
aS'SX293.WAV'
p2226
aS'SX383.WAV'
p2227
asS'FGMB0'
p2228
(lp2229
S'SA1.WAV'
p2230
aS'SA2.WAV'
p2231
aS'SI1145.WAV'
p2232
aS'SI1775.WAV'
p2233
aS'SI515.WAV'
p2234
aS'SX155.WAV'
p2235
aS'SX245.WAV'
p2236
aS'SX335.WAV'
p2237
aS'SX425.WAV'
p2238
aS'SX65.WAV'
p2239
asS'MGAK0'
p2240
(lp2241
S'SA1.WAV'
p2242
aS'SA2.WAV'
p2243
aS'SI1036.WAV'
p2244
aS'SI1666.WAV'
p2245
aS'SI2296.WAV'
p2246
aS'SX136.WAV'
p2247
aS'SX226.WAV'
p2248
aS'SX316.WAV'
p2249
aS'SX406.WAV'
p2250
aS'SX46.WAV'
p2251
asS'FPJF0'
p2252
(lp2253
S'SA1.WAV'
p2254
aS'SA2.WAV'
p2255
aS'SI1046.WAV'
p2256
aS'SI1259.WAV'
p2257
aS'SI1676.WAV'
p2258
aS'SX146.WAV'
p2259
aS'SX236.WAV'
p2260
aS'SX326.WAV'
p2261
aS'SX352.WAV'
p2262
aS'SX56.WAV'
p2263
asS'MDPK0'
p2264
(lp2265
S'SA1.WAV'
p2266
aS'SA2.WAV'
p2267
aS'SI1053.WAV'
p2268
aS'SI1683.WAV'
p2269
aS'SI552.WAV'
p2270
aS'SX153.WAV'
p2271
aS'SX243.WAV'
p2272
aS'SX333.WAV'
p2273
aS'SX423.WAV'
p2274
aS'SX63.WAV'
p2275
asS'MBSB0'
p2276
(lp2277
S'SA1.WAV'
p2278
aS'SA2.WAV'
p2279
aS'SI1353.WAV'
p2280
aS'SI1983.WAV'
p2281
aS'SI723.WAV'
p2282
aS'SX183.WAV'
p2283
aS'SX273.WAV'
p2284
aS'SX3.WAV'
p2285
aS'SX363.WAV'
p2286
aS'SX93.WAV'
p2287
asS'MERS0'
p2288
(lp2289
S'SA1.WAV'
p2290
aS'SA2.WAV'
p2291
aS'SI1019.WAV'
p2292
aS'SI1649.WAV'
p2293
aS'SI497.WAV'
p2294
aS'SX119.WAV'
p2295
aS'SX209.WAV'
p2296
aS'SX29.WAV'
p2297
aS'SX299.WAV'
p2298
aS'SX389.WAV'
p2299
asS'MARC0'
p2300
(lp2301
S'SA1.WAV'
p2302
aS'SA2.WAV'
p2303
aS'SI1188.WAV'
p2304
aS'SI1818.WAV'
p2305
aS'SI558.WAV'
p2306
aS'SX108.WAV'
p2307
aS'SX18.WAV'
p2308
aS'SX198.WAV'
p2309
aS'SX288.WAV'
p2310
aS'SX378.WAV'
p2311
asS'FSAH0'
p2312
(lp2313
S'SA1.WAV'
p2314
aS'SA2.WAV'
p2315
aS'SI1244.WAV'
p2316
aS'SI1874.WAV'
p2317
aS'SI614.WAV'
p2318
aS'SX164.WAV'
p2319
aS'SX327.WAV'
p2320
aS'SX344.WAV'
p2321
aS'SX434.WAV'
p2322
aS'SX74.WAV'
p2323
asS'MJXA0'
p2324
(lp2325
S'SA1.WAV'
p2326
aS'SA2.WAV'
p2327
aS'SI1507.WAV'
p2328
aS'SI2137.WAV'
p2329
aS'SI877.WAV'
p2330
aS'SX157.WAV'
p2331
aS'SX247.WAV'
p2332
aS'SX337.WAV'
p2333
aS'SX427.WAV'
p2334
aS'SX67.WAV'
p2335
asS'MTPF0'
p2336
(lp2337
S'SA1.WAV'
p2338
aS'SA2.WAV'
p2339
aS'SI1235.WAV'
p2340
aS'SI1865.WAV'
p2341
aS'SI605.WAV'
p2342
aS'SX155.WAV'
p2343
aS'SX245.WAV'
p2344
aS'SX335.WAV'
p2345
aS'SX425.WAV'
p2346
aS'SX65.WAV'
p2347
asS'FSSB0'
p2348
(lp2349
S'SA1.WAV'
p2350
aS'SA2.WAV'
p2351
aS'SI1082.WAV'
p2352
aS'SI1712.WAV'
p2353
aS'SI2342.WAV'
p2354
aS'SX182.WAV'
p2355
aS'SX272.WAV'
p2356
aS'SX362.WAV'
p2357
aS'SX452.WAV'
p2358
aS'SX92.WAV'
p2359
asS'MREH1'
p2360
(lp2361
S'SA1.WAV'
p2362
aS'SA2.WAV'
p2363
aS'SI1599.WAV'
p2364
aS'SI2229.WAV'
p2365
aS'SI969.WAV'
p2366
aS'SX159.WAV'
p2367
aS'SX249.WAV'
p2368
aS'SX339.WAV'
p2369
aS'SX429.WAV'
p2370
aS'SX69.WAV'
p2371
asS'FDRD1'
p2372
(lp2373
S'SA1.WAV'
p2374
aS'SA2.WAV'
p2375
aS'SI1544.WAV'
p2376
aS'SI1566.WAV'
p2377
aS'SI2149.WAV'
p2378
aS'SX104.WAV'
p2379
aS'SX14.WAV'
p2380
aS'SX194.WAV'
p2381
aS'SX284.WAV'
p2382
aS'SX374.WAV'
p2383
asS'FMGD0'
p2384
(lp2385
S'SA1.WAV'
p2386
aS'SA2.WAV'
p2387
aS'SI1564.WAV'
p2388
aS'SI2194.WAV'
p2389
aS'SI934.WAV'
p2390
aS'SX124.WAV'
p2391
aS'SX214.WAV'
p2392
aS'SX304.WAV'
p2393
aS'SX34.WAV'
p2394
aS'SX394.WAV'
p2395
asS'FECD0'
p2396
(lp2397
S'SA1.WAV'
p2398
aS'SA2.WAV'
p2399
aS'SI1418.WAV'
p2400
aS'SI2048.WAV'
p2401
aS'SI788.WAV'
p2402
aS'SX158.WAV'
p2403
aS'SX248.WAV'
p2404
aS'SX338.WAV'
p2405
aS'SX428.WAV'
p2406
aS'SX68.WAV'
p2407
asS'FTMG0'
p2408
(lp2409
S'SA1.WAV'
p2410
aS'SA2.WAV'
p2411
aS'SI1532.WAV'
p2412
aS'SI2162.WAV'
p2413
aS'SI902.WAV'
p2414
aS'SX182.WAV'
p2415
aS'SX272.WAV'
p2416
aS'SX362.WAV'
p2417
aS'SX452.WAV'
p2418
aS'SX92.WAV'
p2419
asS'MVJH0'
p2420
(lp2421
S'SA1.WAV'
p2422
aS'SA2.WAV'
p2423
aS'SI1556.WAV'
p2424
aS'SI2186.WAV'
p2425
aS'SI926.WAV'
p2426
aS'SX116.WAV'
p2427
aS'SX206.WAV'
p2428
aS'SX26.WAV'
p2429
aS'SX296.WAV'
p2430
aS'SX386.WAV'
p2431
asS'MDBB1'
p2432
(lp2433
S'SA1.WAV'
p2434
aS'SA2.WAV'
p2435
aS'SI1006.WAV'
p2436
aS'SI1636.WAV'
p2437
aS'SI2056.WAV'
p2438
aS'SX106.WAV'
p2439
aS'SX16.WAV'
p2440
aS'SX196.WAV'
p2441
aS'SX286.WAV'
p2442
aS'SX376.WAV'
p2443
asS'MDWA0'
p2444
(lp2445
S'SA1.WAV'
p2446
aS'SA2.WAV'
p2447
aS'SI1146.WAV'
p2448
aS'SI1445.WAV'
p2449
aS'SI519.WAV'
p2450
aS'SX185.WAV'
p2451
aS'SX275.WAV'
p2452
aS'SX365.WAV'
p2453
aS'SX5.WAV'
p2454
aS'SX95.WAV'
p2455
asS'MLIH0'
p2456
(lp2457
S'SA1.WAV'
p2458
aS'SA2.WAV'
p2459
aS'SI1183.WAV'
p2460
aS'SI1813.WAV'
p2461
aS'SI553.WAV'
p2462
aS'SX103.WAV'
p2463
aS'SX13.WAV'
p2464
aS'SX193.WAV'
p2465
aS'SX283.WAV'
p2466
aS'SX373.WAV'
p2467
asS'MJLG1'
p2468
(lp2469
S'SA1.WAV'
p2470
aS'SA2.WAV'
p2471
aS'SI1012.WAV'
p2472
aS'SI1642.WAV'
p2473
aS'SI2272.WAV'
p2474
aS'SX112.WAV'
p2475
aS'SX202.WAV'
p2476
aS'SX22.WAV'
p2477
aS'SX292.WAV'
p2478
aS'SX382.WAV'
p2479
asS'MRAI0'
p2480
(lp2481
S'SA1.WAV'
p2482
aS'SA2.WAV'
p2483
aS'SI1954.WAV'
p2484
aS'SI2052.WAV'
p2485
aS'SI792.WAV'
p2486
aS'SX162.WAV'
p2487
aS'SX252.WAV'
p2488
aS'SX342.WAV'
p2489
aS'SX432.WAV'
p2490
aS'SX72.WAV'
p2491
asS'FSJS0'
p2492
(lp2493
S'SA1.WAV'
p2494
aS'SA2.WAV'
p2495
aS'SI1171.WAV'
p2496
aS'SI1801.WAV'
p2497
aS'SI541.WAV'
p2498
aS'SX181.WAV'
p2499
aS'SX271.WAV'
p2500
aS'SX361.WAV'
p2501
aS'SX451.WAV'
p2502
aS'SX91.WAV'
p2503
asS'FMLD0'
p2504
(lp2505
S'SA1.WAV'
p2506
aS'SA2.WAV'
p2507
aS'SI2185.WAV'
p2508
aS'SI822.WAV'
p2509
aS'SI925.WAV'
p2510
aS'SX115.WAV'
p2511
aS'SX205.WAV'
p2512
aS'SX25.WAV'
p2513
aS'SX295.WAV'
p2514
aS'SX385.WAV'
p2515
asS'MPEB0'
p2516
(lp2517
S'SA1.WAV'
p2518
aS'SA2.WAV'
p2519
aS'SI1034.WAV'
p2520
aS'SI1860.WAV'
p2521
aS'SI600.WAV'
p2522
aS'SX150.WAV'
p2523
aS'SX240.WAV'
p2524
aS'SX330.WAV'
p2525
aS'SX420.WAV'
p2526
aS'SX60.WAV'
p2527
asS'MJJG0'
p2528
(lp2529
S'SA1.WAV'
p2530
aS'SA2.WAV'
p2531
aS'SI1003.WAV'
p2532
aS'SI1633.WAV'
p2533
aS'SI2263.WAV'
p2534
aS'SX103.WAV'
p2535
aS'SX13.WAV'
p2536
aS'SX193.WAV'
p2537
aS'SX283.WAV'
p2538
aS'SX373.WAV'
p2539
asS'MCMB0'
p2540
(lp2541
S'SA1.WAV'
p2542
aS'SA2.WAV'
p2543
aS'SI1268.WAV'
p2544
aS'SI1898.WAV'
p2545
aS'SI638.WAV'
p2546
aS'SX188.WAV'
p2547
aS'SX278.WAV'
p2548
aS'SX368.WAV'
p2549
aS'SX8.WAV'
p2550
aS'SX98.WAV'
p2551
asS'MGAF0'
p2552
(lp2553
S'SA1.WAV'
p2554
aS'SA2.WAV'
p2555
aS'SI1282.WAV'
p2556
aS'SI1912.WAV'
p2557
aS'SI652.WAV'
p2558
aS'SX112.WAV'
p2559
aS'SX202.WAV'
p2560
aS'SX22.WAV'
p2561
aS'SX292.WAV'
p2562
aS'SX382.WAV'
p2563
asS'MMDB1'
p2564
(lp2565
S'SA1.WAV'
p2566
aS'SA2.WAV'
p2567
aS'SI1625.WAV'
p2568
aS'SI2255.WAV'
p2569
aS'SI995.WAV'
p2570
aS'SX185.WAV'
p2571
aS'SX275.WAV'
p2572
aS'SX365.WAV'
p2573
aS'SX5.WAV'
p2574
aS'SX95.WAV'
p2575
asS'FTAJ0'
p2576
(lp2577
S'SA1.WAV'
p2578
aS'SA2.WAV'
p2579
aS'SI1329.WAV'
p2580
aS'SI474.WAV'
p2581
aS'SI699.WAV'
p2582
aS'SX159.WAV'
p2583
aS'SX249.WAV'
p2584
aS'SX339.WAV'
p2585
aS'SX429.WAV'
p2586
aS'SX69.WAV'
p2587
asS'FKKH0'
p2588
(lp2589
S'SA1.WAV'
p2590
aS'SA2.WAV'
p2591
aS'SI1290.WAV'
p2592
aS'SI1920.WAV'
p2593
aS'SI660.WAV'
p2594
aS'SX120.WAV'
p2595
aS'SX210.WAV'
p2596
aS'SX30.WAV'
p2597
aS'SX300.WAV'
p2598
aS'SX390.WAV'
p2599
asS'MBGT0'
p2600
(lp2601
S'SA1.WAV'
p2602
aS'SA2.WAV'
p2603
aS'SI1341.WAV'
p2604
aS'SI1841.WAV'
p2605
aS'SI711.WAV'
p2606
aS'SX171.WAV'
p2607
aS'SX261.WAV'
p2608
aS'SX351.WAV'
p2609
aS'SX441.WAV'
p2610
aS'SX81.WAV'
p2611
asS'FCKE0'
p2612
(lp2613
S'SA1.WAV'
p2614
aS'SA2.WAV'
p2615
aS'SI1111.WAV'
p2616
aS'SI1741.WAV'
p2617
aS'SI481.WAV'
p2618
aS'SX121.WAV'
p2619
aS'SX211.WAV'
p2620
aS'SX301.WAV'
p2621
aS'SX31.WAV'
p2622
aS'SX391.WAV'
p2623
asS'FJSP0'
p2624
(lp2625
S'SA1.WAV'
p2626
aS'SA2.WAV'
p2627
aS'SI1434.WAV'
p2628
aS'SI1763.WAV'
p2629
aS'SI804.WAV'
p2630
aS'SX174.WAV'
p2631
aS'SX264.WAV'
p2632
aS'SX354.WAV'
p2633
aS'SX444.WAV'
p2634
aS'SX84.WAV'
p2635
asS'MRGM0'
p2636
(lp2637
S'SA1.WAV'
p2638
aS'SA2.WAV'
p2639
aS'SI1162.WAV'
p2640
aS'SI1792.WAV'
p2641
aS'SI532.WAV'
p2642
aS'SX172.WAV'
p2643
aS'SX262.WAV'
p2644
aS'SX416.WAV'
p2645
aS'SX442.WAV'
p2646
aS'SX82.WAV'
p2647
asS'FTLH0'
p2648
(lp2649
S'SA1.WAV'
p2650
aS'SA2.WAV'
p2651
aS'SI1009.WAV'
p2652
aS'SI1390.WAV'
p2653
aS'SI1639.WAV'
p2654
aS'SX109.WAV'
p2655
aS'SX19.WAV'
p2656
aS'SX199.WAV'
p2657
aS'SX289.WAV'
p2658
aS'SX379.WAV'
p2659
asS'FDJH0'
p2660
(lp2661
S'SA1.WAV'
p2662
aS'SA2.WAV'
p2663
aS'SI1565.WAV'
p2664
aS'SI2195.WAV'
p2665
aS'SI935.WAV'
p2666
aS'SX125.WAV'
p2667
aS'SX215.WAV'
p2668
aS'SX305.WAV'
p2669
aS'SX35.WAV'
p2670
aS'SX395.WAV'
p2671
asS'MCRE0'
p2672
(lp2673
S'SA1.WAV'
p2674
aS'SA2.WAV'
p2675
aS'SI1121.WAV'
p2676
aS'SI1725.WAV'
p2677
aS'SI1751.WAV'
p2678
aS'SX131.WAV'
p2679
aS'SX221.WAV'
p2680
aS'SX24.WAV'
p2681
aS'SX401.WAV'
p2682
aS'SX41.WAV'
p2683
asS'MRAV0'
p2684
(lp2685
S'SA1.WAV'
p2686
aS'SA2.WAV'
p2687
aS'SI1008.WAV'
p2688
aS'SI1638.WAV'
p2689
aS'SI2268.WAV'
p2690
aS'SX108.WAV'
p2691
aS'SX18.WAV'
p2692
aS'SX198.WAV'
p2693
aS'SX288.WAV'
p2694
aS'SX378.WAV'
p2695
asS'FJEN0'
p2696
(lp2697
S'SA1.WAV'
p2698
aS'SA2.WAV'
p2699
aS'SI1047.WAV'
p2700
aS'SI1677.WAV'
p2701
aS'SI2307.WAV'
p2702
aS'SX147.WAV'
p2703
aS'SX237.WAV'
p2704
aS'SX327.WAV'
p2705
aS'SX417.WAV'
p2706
aS'SX57.WAV'
p2707
asS'FCEG0'
p2708
(lp2709
S'SA1.WAV'
p2710
aS'SA2.WAV'
p2711
aS'SI1248.WAV'
p2712
aS'SI1878.WAV'
p2713
aS'SI618.WAV'
p2714
aS'SX168.WAV'
p2715
aS'SX258.WAV'
p2716
aS'SX348.WAV'
p2717
aS'SX438.WAV'
p2718
aS'SX78.WAV'
p2719
asS'MAPV0'
p2720
(lp2721
S'SA1.WAV'
p2722
aS'SA2.WAV'
p2723
aS'SI1293.WAV'
p2724
aS'SI1923.WAV'
p2725
aS'SI663.WAV'
p2726
aS'SX123.WAV'
p2727
aS'SX213.WAV'
p2728
aS'SX303.WAV'
p2729
aS'SX33.WAV'
p2730
aS'SX393.WAV'
p2731
asS'FKLH0'
p2732
(lp2733
S'SA1.WAV'
p2734
aS'SA2.WAV'
p2735
aS'SI1257.WAV'
p2736
aS'SI1887.WAV'
p2737
aS'SI627.WAV'
p2738
aS'SX177.WAV'
p2739
aS'SX267.WAV'
p2740
aS'SX357.WAV'
p2741
aS'SX447.WAV'
p2742
aS'SX87.WAV'
p2743
asS'MMAM0'
p2744
(lp2745
S'SA1.WAV'
p2746
aS'SA2.WAV'
p2747
aS'SI1597.WAV'
p2748
aS'SI1668.WAV'
p2749
aS'SI2227.WAV'
p2750
aS'SX157.WAV'
p2751
aS'SX247.WAV'
p2752
aS'SX337.WAV'
p2753
aS'SX427.WAV'
p2754
aS'SX67.WAV'
p2755
asS'MSEM1'
p2756
(lp2757
S'SA1.WAV'
p2758
aS'SA2.WAV'
p2759
aS'SI1440.WAV'
p2760
aS'SI2070.WAV'
p2761
aS'SI810.WAV'
p2762
aS'SX180.WAV'
p2763
aS'SX270.WAV'
p2764
aS'SX360.WAV'
p2765
aS'SX450.WAV'
p2766
aS'SX90.WAV'
p2767
asS'MMWH0'
p2768
(lp2769
S'SA1.WAV'
p2770
aS'SA2.WAV'
p2771
aS'SI1089.WAV'
p2772
aS'SI1301.WAV'
p2773
aS'SI459.WAV'
p2774
aS'SX189.WAV'
p2775
aS'SX279.WAV'
p2776
aS'SX369.WAV'
p2777
aS'SX9.WAV'
p2778
aS'SX99.WAV'
p2779
asS'MWGR0'
p2780
(lp2781
S'SA1.WAV'
p2782
aS'SA2.WAV'
p2783
aS'SI1606.WAV'
p2784
aS'SI2236.WAV'
p2785
aS'SI976.WAV'
p2786
aS'SX166.WAV'
p2787
aS'SX256.WAV'
p2788
aS'SX346.WAV'
p2789
aS'SX436.WAV'
p2790
aS'SX76.WAV'
p2791
asS'MKDD0'
p2792
(lp2793
S'SA1.WAV'
p2794
aS'SA2.WAV'
p2795
aS'SI1567.WAV'
p2796
aS'SI2197.WAV'
p2797
aS'SI937.WAV'
p2798
aS'SX127.WAV'
p2799
aS'SX217.WAV'
p2800
aS'SX307.WAV'
p2801
aS'SX37.WAV'
p2802
aS'SX397.WAV'
p2803
asS'MNTW0'
p2804
(lp2805
S'SA1.WAV'
p2806
aS'SA2.WAV'
p2807
aS'SI1068.WAV'
p2808
aS'SI1698.WAV'
p2809
aS'SI2328.WAV'
p2810
aS'SX168.WAV'
p2811
aS'SX202.WAV'
p2812
aS'SX258.WAV'
p2813
aS'SX348.WAV'
p2814
aS'SX78.WAV'
p2815
asS'MHIT0'
p2816
(lp2817
S'SA1.WAV'
p2818
aS'SA2.WAV'
p2819
aS'SI1613.WAV'
p2820
aS'SI2243.WAV'
p2821
aS'SI983.WAV'
p2822
aS'SX173.WAV'
p2823
aS'SX263.WAV'
p2824
aS'SX353.WAV'
p2825
aS'SX443.WAV'
p2826
aS'SX83.WAV'
p2827
asS'MFGK0'
p2828
(lp2829
S'SA1.WAV'
p2830
aS'SA2.WAV'
p2831
aS'SI1451.WAV'
p2832
aS'SI1744.WAV'
p2833
aS'SI484.WAV'
p2834
aS'SX124.WAV'
p2835
aS'SX214.WAV'
p2836
aS'SX304.WAV'
p2837
aS'SX34.WAV'
p2838
aS'SX394.WAV'
p2839
asS'MKES0'
p2840
(lp2841
S'SA1.WAV'
p2842
aS'SA2.WAV'
p2843
aS'SI1253.WAV'
p2844
aS'SI1883.WAV'
p2845
aS'SI623.WAV'
p2846
aS'SX173.WAV'
p2847
aS'SX263.WAV'
p2848
aS'SX353.WAV'
p2849
aS'SX443.WAV'
p2850
aS'SX83.WAV'
p2851
asS'MCEM0'
p2852
(lp2853
S'SA1.WAV'
p2854
aS'SA2.WAV'
p2855
aS'SI1398.WAV'
p2856
aS'SI2028.WAV'
p2857
aS'SI768.WAV'
p2858
aS'SX138.WAV'
p2859
aS'SX228.WAV'
p2860
aS'SX318.WAV'
p2861
aS'SX408.WAV'
p2862
aS'SX48.WAV'
p2863
asS'FLJG0'
p2864
(lp2865
S'SA1.WAV'
p2866
aS'SA2.WAV'
p2867
aS'SI1611.WAV'
p2868
aS'SI2241.WAV'
p2869
aS'SI981.WAV'
p2870
aS'SX171.WAV'
p2871
aS'SX261.WAV'
p2872
aS'SX351.WAV'
p2873
aS'SX441.WAV'
p2874
aS'SX81.WAV'
p2875
asS'FJRB0'
p2876
(lp2877
S'SA1.WAV'
p2878
aS'SA2.WAV'
p2879
aS'SI1302.WAV'
p2880
aS'SI1932.WAV'
p2881
aS'SI672.WAV'
p2882
aS'SX132.WAV'
p2883
aS'SX222.WAV'
p2884
aS'SX312.WAV'
p2885
aS'SX402.WAV'
p2886
aS'SX42.WAV'
p2887
asS'MTRC0'
p2888
(lp2889
S'SA1.WAV'
p2890
aS'SA2.WAV'
p2891
aS'SI1623.WAV'
p2892
aS'SI589.WAV'
p2893
aS'SI993.WAV'
p2894
aS'SX170.WAV'
p2895
aS'SX183.WAV'
p2896
aS'SX273.WAV'
p2897
aS'SX363.WAV'
p2898
aS'SX93.WAV'
p2899
asS'FGDP0'
p2900
(lp2901
S'SA1.WAV'
p2902
aS'SA2.WAV'
p2903
aS'SI1618.WAV'
p2904
aS'SI2248.WAV'
p2905
aS'SI988.WAV'
p2906
aS'SX178.WAV'
p2907
aS'SX268.WAV'
p2908
aS'SX358.WAV'
p2909
aS'SX448.WAV'
p2910
aS'SX88.WAV'
p2911
asS'MBEF0'
p2912
(lp2913
S'SA1.WAV'
p2914
aS'SA2.WAV'
p2915
aS'SI1281.WAV'
p2916
aS'SI1911.WAV'
p2917
aS'SI651.WAV'
p2918
aS'SX111.WAV'
p2919
aS'SX201.WAV'
p2920
aS'SX21.WAV'
p2921
aS'SX291.WAV'
p2922
aS'SX381.WAV'
p2923
asS'MTXS0'
p2924
(lp2925
S'SA1.WAV'
p2926
aS'SA2.WAV'
p2927
aS'SI1060.WAV'
p2928
aS'SI1690.WAV'
p2929
aS'SI2320.WAV'
p2930
aS'SX160.WAV'
p2931
aS'SX250.WAV'
p2932
aS'SX340.WAV'
p2933
aS'SX430.WAV'
p2934
aS'SX70.WAV'
p2935
asS'FJCS0'
p2936
(lp2937
S'SA1.WAV'
p2938
aS'SA2.WAV'
p2939
aS'SI1309.WAV'
p2940
aS'SI1833.WAV'
p2941
aS'SI1939.WAV'
p2942
aS'SX139.WAV'
p2943
aS'SX229.WAV'
p2944
aS'SX319.WAV'
p2945
aS'SX409.WAV'
p2946
aS'SX49.WAV'
p2947
asS'FETB0'
p2948
(lp2949
S'SA1.WAV'
p2950
aS'SA2.WAV'
p2951
aS'SI1148.WAV'
p2952
aS'SI1778.WAV'
p2953
aS'SI518.WAV'
p2954
aS'SX158.WAV'
p2955
aS'SX248.WAV'
p2956
aS'SX338.WAV'
p2957
aS'SX428.WAV'
p2958
aS'SX68.WAV'
p2959
asS'FPAB1'
p2960
(lp2961
S'SA1.WAV'
p2962
aS'SA2.WAV'
p2963
aS'SI1471.WAV'
p2964
aS'SI2101.WAV'
p2965
aS'SI841.WAV'
p2966
aS'SX121.WAV'
p2967
aS'SX211.WAV'
p2968
aS'SX301.WAV'
p2969
aS'SX31.WAV'
p2970
aS'SX391.WAV'
p2971
asS'MLLL0'
p2972
(lp2973
S'SA1.WAV'
p2974
aS'SA2.WAV'
p2975
aS'SI1363.WAV'
p2976
aS'SI1993.WAV'
p2977
aS'SI733.WAV'
p2978
aS'SX103.WAV'
p2979
aS'SX13.WAV'
p2980
aS'SX193.WAV'
p2981
aS'SX283.WAV'
p2982
aS'SX373.WAV'
p2983
asS'FMKC0'
p2984
(lp2985
S'SA1.WAV'
p2986
aS'SA2.WAV'
p2987
aS'SI1041.WAV'
p2988
aS'SI1072.WAV'
p2989
aS'SI1702.WAV'
p2990
aS'SX172.WAV'
p2991
aS'SX262.WAV'
p2992
aS'SX352.WAV'
p2993
aS'SX442.WAV'
p2994
aS'SX82.WAV'
p2995
asS'MDHL0'
p2996
(lp2997
S'SA1.WAV'
p2998
aS'SA2.WAV'
p2999
aS'SI1439.WAV'
p3000
aS'SI2069.WAV'
p3001
aS'SI809.WAV'
p3002
aS'SX179.WAV'
p3003
aS'SX269.WAV'
p3004
aS'SX359.WAV'
p3005
aS'SX449.WAV'
p3006
aS'SX89.WAV'
p3007
asS'FJSK0'
p3008
(lp3009
S'SA1.WAV'
p3010
aS'SA2.WAV'
p3011
aS'SI1052.WAV'
p3012
aS'SI1682.WAV'
p3013
aS'SI2312.WAV'
p3014
aS'SX152.WAV'
p3015
aS'SX242.WAV'
p3016
aS'SX332.WAV'
p3017
aS'SX422.WAV'
p3018
aS'SX62.WAV'
p3019
asS'MBCG0'
p3020
(lp3021
S'SA1.WAV'
p3022
aS'SA2.WAV'
p3023
aS'SI2217.WAV'
p3024
aS'SI486.WAV'
p3025
aS'SI957.WAV'
p3026
aS'SX147.WAV'
p3027
aS'SX237.WAV'
p3028
aS'SX327.WAV'
p3029
aS'SX417.WAV'
p3030
aS'SX57.WAV'
p3031
asS'FDKN0'
p3032
(lp3033
S'SA1.WAV'
p3034
aS'SA2.WAV'
p3035
aS'SI1081.WAV'
p3036
aS'SI1202.WAV'
p3037
aS'SI1711.WAV'
p3038
aS'SX181.WAV'
p3039
aS'SX271.WAV'
p3040
aS'SX361.WAV'
p3041
aS'SX451.WAV'
p3042
aS'SX91.WAV'
p3043
asS'MLNS0'
p3044
(lp3045
S'SA1.WAV'
p3046
aS'SA2.WAV'
p3047
aS'SI1407.WAV'
p3048
aS'SI2037.WAV'
p3049
aS'SI777.WAV'
p3050
aS'SX147.WAV'
p3051
aS'SX237.WAV'
p3052
aS'SX327.WAV'
p3053
aS'SX417.WAV'
p3054
aS'SX57.WAV'
p3055
asS'FBLV0'
p3056
(lp3057
S'SA1.WAV'
p3058
aS'SA2.WAV'
p3059
aS'SI1058.WAV'
p3060
aS'SI1688.WAV'
p3061
aS'SI2318.WAV'
p3062
aS'SX158.WAV'
p3063
aS'SX248.WAV'
p3064
aS'SX338.WAV'
p3065
aS'SX428.WAV'
p3066
aS'SX68.WAV'
p3067
asS'MPAM0'
p3068
(lp3069
S'SA1.WAV'
p3070
aS'SA2.WAV'
p3071
aS'SI1189.WAV'
p3072
aS'SI1819.WAV'
p3073
aS'SI1961.WAV'
p3074
aS'SX109.WAV'
p3075
aS'SX19.WAV'
p3076
aS'SX199.WAV'
p3077
aS'SX289.WAV'
p3078
aS'SX379.WAV'
p3079
asS'MPAM1'
p3080
(lp3081
S'SA1.WAV'
p3082
aS'SA2.WAV'
p3083
aS'SI1029.WAV'
p3084
aS'SI1836.WAV'
p3085
aS'SI576.WAV'
p3086
aS'SX126.WAV'
p3087
aS'SX216.WAV'
p3088
aS'SX306.WAV'
p3089
aS'SX36.WAV'
p3090
aS'SX396.WAV'
p3091
asS'MLJB0'
p3092
(lp3093
S'SA1.WAV'
p3094
aS'SA2.WAV'
p3095
aS'SI1310.WAV'
p3096
aS'SI1940.WAV'
p3097
aS'SI680.WAV'
p3098
aS'SX140.WAV'
p3099
aS'SX230.WAV'
p3100
aS'SX320.WAV'
p3101
aS'SX410.WAV'
p3102
aS'SX50.WAV'
p3103
asS'FSBK0'
p3104
(lp3105
S'SA1.WAV'
p3106
aS'SA2.WAV'
p3107
aS'SI1069.WAV'
p3108
aS'SI1699.WAV'
p3109
aS'SI2329.WAV'
p3110
aS'SX169.WAV'
p3111
aS'SX259.WAV'
p3112
aS'SX349.WAV'
p3113
aS'SX439.WAV'
p3114
aS'SX79.WAV'
p3115
asS'FDFB0'
p3116
(lp3117
S'SA1.WAV'
p3118
aS'SA2.WAV'
p3119
aS'SI1318.WAV'
p3120
aS'SI1948.WAV'
p3121
aS'SI2010.WAV'
p3122
aS'SX148.WAV'
p3123
aS'SX238.WAV'
p3124
aS'SX328.WAV'
p3125
aS'SX418.WAV'
p3126
aS'SX58.WAV'
p3127
asS'MRJM3'
p3128
(lp3129
S'SA1.WAV'
p3130
aS'SA2.WAV'
p3131
aS'SI1448.WAV'
p3132
aS'SI1809.WAV'
p3133
aS'SI2078.WAV'
p3134
aS'SX188.WAV'
p3135
aS'SX278.WAV'
p3136
aS'SX368.WAV'
p3137
aS'SX8.WAV'
p3138
aS'SX98.WAV'
p3139
asS'MRJM1'
p3140
(lp3141
S'SA1.WAV'
p3142
aS'SA2.WAV'
p3143
aS'SI1298.WAV'
p3144
aS'SI1928.WAV'
p3145
aS'SI668.WAV'
p3146
aS'SX128.WAV'
p3147
aS'SX218.WAV'
p3148
aS'SX308.WAV'
p3149
aS'SX38.WAV'
p3150
aS'SX398.WAV'
p3151
asS'MTHC0'
p3152
(lp3153
S'SA1.WAV'
p3154
aS'SA2.WAV'
p3155
aS'SI1015.WAV'
p3156
aS'SI1645.WAV'
p3157
aS'SI2275.WAV'
p3158
aS'SX115.WAV'
p3159
aS'SX205.WAV'
p3160
aS'SX25.WAV'
p3161
aS'SX295.WAV'
p3162
aS'SX385.WAV'
p3163
asS'MRMG0'
p3164
(lp3165
S'SA1.WAV'
p3166
aS'SA2.WAV'
p3167
aS'SI1080.WAV'
p3168
aS'SI1710.WAV'
p3169
aS'SI2340.WAV'
p3170
aS'SX180.WAV'
p3171
aS'SX270.WAV'
p3172
aS'SX360.WAV'
p3173
aS'SX450.WAV'
p3174
aS'SX90.WAV'
p3175
asS'MRJM4'
p3176
(lp3177
S'SA1.WAV'
p3178
aS'SA2.WAV'
p3179
aS'SI1489.WAV'
p3180
aS'SI2119.WAV'
p3181
aS'SI859.WAV'
p3182
aS'SX139.WAV'
p3183
aS'SX229.WAV'
p3184
aS'SX319.WAV'
p3185
aS'SX409.WAV'
p3186
aS'SX49.WAV'
p3187
asS'MSFH0'
p3188
(lp3189
S'SA1.WAV'
p3190
aS'SA2.WAV'
p3191
aS'SI1216.WAV'
p3192
aS'SI1738.WAV'
p3193
aS'SI586.WAV'
p3194
aS'SX136.WAV'
p3195
aS'SX226.WAV'
p3196
aS'SX316.WAV'
p3197
aS'SX406.WAV'
p3198
aS'SX46.WAV'
p3199
asS'MRHL0'
p3200
(lp3201
S'SA1.WAV'
p3202
aS'SA2.WAV'
p3203
aS'SI1515.WAV'
p3204
aS'SI2145.WAV'
p3205
aS'SI885.WAV'
p3206
aS'SX165.WAV'
p3207
aS'SX255.WAV'
p3208
aS'SX345.WAV'
p3209
aS'SX435.WAV'
p3210
aS'SX75.WAV'
p3211
asS'FKMS0'
p3212
(lp3213
S'SA1.WAV'
p3214
aS'SA2.WAV'
p3215
aS'SI1490.WAV'
p3216
aS'SI2120.WAV'
p3217
aS'SI860.WAV'
p3218
aS'SX140.WAV'
p3219
aS'SX230.WAV'
p3220
aS'SX320.WAV'
p3221
aS'SX410.WAV'
p3222
aS'SX50.WAV'
p3223
asS'FSLB1'
p3224
(lp3225
S'SA1.WAV'
p3226
aS'SA2.WAV'
p3227
aS'SI1904.WAV'
p3228
aS'SI644.WAV'
p3229
aS'SI891.WAV'
p3230
aS'SX104.WAV'
p3231
aS'SX14.WAV'
p3232
aS'SX194.WAV'
p3233
aS'SX284.WAV'
p3234
aS'SX374.WAV'
p3235
asS'MPGH0'
p3236
(lp3237
S'SA1.WAV'
p3238
aS'SA2.WAV'
p3239
aS'SI1554.WAV'
p3240
aS'SI675.WAV'
p3241
aS'SI924.WAV'
p3242
aS'SX114.WAV'
p3243
aS'SX204.WAV'
p3244
aS'SX24.WAV'
p3245
aS'SX294.WAV'
p3246
aS'SX384.WAV'
p3247
asS'MTLB0'
p3248
(lp3249
S'SA1.WAV'
p3250
aS'SA2.WAV'
p3251
aS'SI1134.WAV'
p3252
aS'SI1764.WAV'
p3253
aS'SI504.WAV'
p3254
aS'SX144.WAV'
p3255
aS'SX234.WAV'
p3256
aS'SX324.WAV'
p3257
aS'SX414.WAV'
p3258
aS'SX54.WAV'
p3259
asS'MRMH0'
p3260
(lp3261
S'SA1.WAV'
p3262
aS'SA2.WAV'
p3263
aS'SI1021.WAV'
p3264
aS'SI1349.WAV'
p3265
aS'SI2281.WAV'
p3266
aS'SX121.WAV'
p3267
aS'SX211.WAV'
p3268
aS'SX301.WAV'
p3269
aS'SX31.WAV'
p3270
aS'SX391.WAV'
p3271
asS'FSJW0'
p3272
(lp3273
S'SA1.WAV'
p3274
aS'SA2.WAV'
p3275
aS'SI1333.WAV'
p3276
aS'SI1963.WAV'
p3277
aS'SI703.WAV'
p3278
aS'SX163.WAV'
p3279
aS'SX253.WAV'
p3280
aS'SX343.WAV'
p3281
aS'SX433.WAV'
p3282
aS'SX73.WAV'
p3283
asS'MRTC0'
p3284
(lp3285
S'SA1.WAV'
p3286
aS'SA2.WAV'
p3287
aS'SI1458.WAV'
p3288
aS'SI2088.WAV'
p3289
aS'SI828.WAV'
p3290
aS'SX108.WAV'
p3291
aS'SX18.WAV'
p3292
aS'SX198.WAV'
p3293
aS'SX288.WAV'
p3294
aS'SX378.WAV'
p3295
asS'FMPG0'
p3296
(lp3297
S'SA1.WAV'
p3298
aS'SA2.WAV'
p3299
aS'SI1602.WAV'
p3300
aS'SI2232.WAV'
p3301
aS'SI972.WAV'
p3302
aS'SX162.WAV'
p3303
aS'SX252.WAV'
p3304
aS'SX342.WAV'
p3305
aS'SX432.WAV'
p3306
aS'SX72.WAV'
p3307
asS'MDSJ0'
p3308
(lp3309
S'SA1.WAV'
p3310
aS'SA2.WAV'
p3311
aS'SI1462.WAV'
p3312
aS'SI2092.WAV'
p3313
aS'SI832.WAV'
p3314
aS'SX112.WAV'
p3315
aS'SX22.WAV'
p3316
aS'SX292.WAV'
p3317
aS'SX382.WAV'
p3318
aS'SX438.WAV'
p3319
asS'MPPC0'
p3320
(lp3321
S'SA1.WAV'
p3322
aS'SA2.WAV'
p3323
aS'SI1412.WAV'
p3324
aS'SI2042.WAV'
p3325
aS'SI782.WAV'
p3326
aS'SX152.WAV'
p3327
aS'SX242.WAV'
p3328
aS'SX332.WAV'
p3329
aS'SX422.WAV'
p3330
aS'SX62.WAV'
p3331
asS'FHES0'
p3332
(lp3333
S'SA1.WAV'
p3334
aS'SA2.WAV'
p3335
aS'SI1109.WAV'
p3336
aS'SI1739.WAV'
p3337
aS'SI479.WAV'
p3338
aS'SX119.WAV'
p3339
aS'SX209.WAV'
p3340
aS'SX29.WAV'
p3341
aS'SX299.WAV'
p3342
aS'SX389.WAV'
p3343
asS'MPWM0'
p3344
(lp3345
S'SA1.WAV'
p3346
aS'SA2.WAV'
p3347
aS'SI1127.WAV'
p3348
aS'SI1757.WAV'
p3349
aS'SI2279.WAV'
p3350
aS'SX137.WAV'
p3351
aS'SX227.WAV'
p3352
aS'SX317.WAV'
p3353
aS'SX407.WAV'
p3354
aS'SX47.WAV'
p3355
asS'MSDB0'
p3356
(lp3357
S'SA1.WAV'
p3358
aS'SA2.WAV'
p3359
aS'SI1007.WAV'
p3360
aS'SI1637.WAV'
p3361
aS'SI2267.WAV'
p3362
aS'SX107.WAV'
p3363
aS'SX17.WAV'
p3364
aS'SX197.WAV'
p3365
aS'SX287.WAV'
p3366
aS'SX377.WAV'
p3367
asS'FJMG0'
p3368
(lp3369
S'SA1.WAV'
p3370
aS'SA2.WAV'
p3371
aS'SI1181.WAV'
p3372
aS'SI1811.WAV'
p3373
aS'SI551.WAV'
p3374
aS'SX101.WAV'
p3375
aS'SX11.WAV'
p3376
aS'SX191.WAV'
p3377
aS'SX281.WAV'
p3378
aS'SX371.WAV'
p3379
asS'FPMY0'
p3380
(lp3381
S'SA1.WAV'
p3382
aS'SA2.WAV'
p3383
aS'SI1153.WAV'
p3384
aS'SI1783.WAV'
p3385
aS'SI523.WAV'
p3386
aS'SX163.WAV'
p3387
aS'SX196.WAV'
p3388
aS'SX253.WAV'
p3389
aS'SX343.WAV'
p3390
aS'SX73.WAV'
p3391
asS'MRJT0'
p3392
(lp3393
S'SA1.WAV'
p3394
aS'SA2.WAV'
p3395
aS'SI1498.WAV'
p3396
aS'SI1805.WAV'
p3397
aS'SI868.WAV'
p3398
aS'SX148.WAV'
p3399
aS'SX238.WAV'
p3400
aS'SX328.WAV'
p3401
aS'SX418.WAV'
p3402
aS'SX58.WAV'
p3403
asS'MLEL0'
p3404
(lp3405
S'SA1.WAV'
p3406
aS'SA2.WAV'
p3407
aS'SI1246.WAV'
p3408
aS'SI1876.WAV'
p3409
aS'SI616.WAV'
p3410
aS'SX166.WAV'
p3411
aS'SX256.WAV'
p3412
aS'SX346.WAV'
p3413
aS'SX436.WAV'
p3414
aS'SX76.WAV'
p3415
asS'MTEB0'
p3416
(lp3417
S'SA1.WAV'
p3418
aS'SA2.WAV'
p3419
aS'SI1133.WAV'
p3420
aS'SI2064.WAV'
p3421
aS'SI503.WAV'
p3422
aS'SX143.WAV'
p3423
aS'SX233.WAV'
p3424
aS'SX323.WAV'
p3425
aS'SX413.WAV'
p3426
aS'SX53.WAV'
p3427
asS'MREM0'
p3428
(lp3429
S'SA1.WAV'
p3430
aS'SA2.WAV'
p3431
aS'SI1591.WAV'
p3432
aS'SI511.WAV'
p3433
aS'SI961.WAV'
p3434
aS'SX151.WAV'
p3435
aS'SX241.WAV'
p3436
aS'SX331.WAV'
p3437
aS'SX421.WAV'
p3438
aS'SX61.WAV'
p3439
asS'MSES0'
p3440
(lp3441
S'SA1.WAV'
p3442
aS'SA2.WAV'
p3443
aS'SI1589.WAV'
p3444
aS'SI2216.WAV'
p3445
aS'SI2219.WAV'
p3446
aS'SX149.WAV'
p3447
aS'SX239.WAV'
p3448
aS'SX329.WAV'
p3449
aS'SX419.WAV'
p3450
aS'SX59.WAV'
p3451
asS'MDLH0'
p3452
(lp3453
S'SA1.WAV'
p3454
aS'SA2.WAV'
p3455
aS'SI1960.WAV'
p3456
aS'SI574.WAV'
p3457
aS'SI700.WAV'
p3458
aS'SX160.WAV'
p3459
aS'SX250.WAV'
p3460
aS'SX340.WAV'
p3461
aS'SX430.WAV'
p3462
aS'SX70.WAV'
p3463
asS'MDAC0'
p3464
(lp3465
S'SA1.WAV'
p3466
aS'SA2.WAV'
p3467
aS'SI1261.WAV'
p3468
aS'SI1837.WAV'
p3469
aS'SI631.WAV'
p3470
aS'SX181.WAV'
p3471
aS'SX271.WAV'
p3472
aS'SX361.WAV'
p3473
aS'SX451.WAV'
p3474
aS'SX91.WAV'
p3475
asS'MDAC2'
p3476
(lp3477
S'SA1.WAV'
p3478
aS'SA2.WAV'
p3479
aS'SI2259.WAV'
p3480
aS'SI560.WAV'
p3481
aS'SI999.WAV'
p3482
aS'SX189.WAV'
p3483
aS'SX279.WAV'
p3484
aS'SX369.WAV'
p3485
aS'SX9.WAV'
p3486
aS'SX99.WAV'
p3487
asS'MTMT0'
p3488
(lp3489
S'SA1.WAV'
p3490
aS'SA2.WAV'
p3491
aS'SI1118.WAV'
p3492
aS'SI1748.WAV'
p3493
aS'SI488.WAV'
p3494
aS'SX128.WAV'
p3495
aS'SX218.WAV'
p3496
aS'SX308.WAV'
p3497
aS'SX38.WAV'
p3498
aS'SX398.WAV'
p3499
asS'MFXS0'
p3500
(lp3501
S'SA1.WAV'
p3502
aS'SA2.WAV'
p3503
aS'SI1674.WAV'
p3504
aS'SI2225.WAV'
p3505
aS'SI2304.WAV'
p3506
aS'SX144.WAV'
p3507
aS'SX234.WAV'
p3508
aS'SX324.WAV'
p3509
aS'SX414.WAV'
p3510
aS'SX54.WAV'
p3511
asS'MJLB0'
p3512
(lp3513
S'SA1.WAV'
p3514
aS'SA2.WAV'
p3515
aS'SI1616.WAV'
p3516
aS'SI2246.WAV'
p3517
aS'SI986.WAV'
p3518
aS'SX176.WAV'
p3519
aS'SX266.WAV'
p3520
aS'SX356.WAV'
p3521
aS'SX446.WAV'
p3522
aS'SX86.WAV'
p3523
asS'MGJF0'
p3524
(lp3525
S'SA1.WAV'
p3526
aS'SA2.WAV'
p3527
aS'SI1901.WAV'
p3528
aS'SI641.WAV'
p3529
aS'SI776.WAV'
p3530
aS'SX101.WAV'
p3531
aS'SX11.WAV'
p3532
aS'SX191.WAV'
p3533
aS'SX281.WAV'
p3534
aS'SX371.WAV'
p3535
asS'FRAM1'
p3536
(lp3537
S'SA1.WAV'
p3538
aS'SA2.WAV'
p3539
aS'SI1360.WAV'
p3540
aS'SI522.WAV'
p3541
aS'SI730.WAV'
p3542
aS'SX10.WAV'
p3543
aS'SX100.WAV'
p3544
aS'SX190.WAV'
p3545
aS'SX280.WAV'
p3546
aS'SX370.WAV'
p3547
asS'FCMM0'
p3548
(lp3549
S'SA1.WAV'
p3550
aS'SA2.WAV'
p3551
aS'SI1083.WAV'
p3552
aS'SI1957.WAV'
p3553
aS'SI453.WAV'
p3554
aS'SX183.WAV'
p3555
aS'SX273.WAV'
p3556
aS'SX363.WAV'
p3557
aS'SX420.WAV'
p3558
aS'SX93.WAV'
p3559
asS'MTAS1'
p3560
(lp3561
S'SA1.WAV'
p3562
aS'SA2.WAV'
p3563
aS'SI1473.WAV'
p3564
aS'SI2098.WAV'
p3565
aS'SI838.WAV'
p3566
aS'SX118.WAV'
p3567
aS'SX208.WAV'
p3568
aS'SX28.WAV'
p3569
aS'SX298.WAV'
p3570
aS'SX388.WAV'
p3571
asS'MSJK0'
p3572
(lp3573
S'SA1.WAV'
p3574
aS'SA2.WAV'
p3575
aS'SI1596.WAV'
p3576
aS'SI2226.WAV'
p3577
aS'SI966.WAV'
p3578
aS'SX156.WAV'
p3579
aS'SX246.WAV'
p3580
aS'SX336.WAV'
p3581
aS'SX426.WAV'
p3582
aS'SX66.WAV'
p3583
asS'MRAM0'
p3584
(lp3585
S'SA1.WAV'
p3586
aS'SA2.WAV'
p3587
aS'SI1275.WAV'
p3588
aS'SI1905.WAV'
p3589
aS'SI1951.WAV'
p3590
aS'SX105.WAV'
p3591
aS'SX15.WAV'
p3592
aS'SX195.WAV'
p3593
aS'SX285.WAV'
p3594
aS'SX375.WAV'
p3595
asS'MDED0'
p3596
(lp3597
S'SA1.WAV'
p3598
aS'SA2.WAV'
p3599
aS'SI1170.WAV'
p3600
aS'SI1800.WAV'
p3601
aS'SI540.WAV'
p3602
aS'SX180.WAV'
p3603
aS'SX270.WAV'
p3604
aS'SX360.WAV'
p3605
aS'SX450.WAV'
p3606
aS'SX90.WAV'
p3607
asS'MDSS0'
p3608
(lp3609
S'SA1.WAV'
p3610
aS'SA2.WAV'
p3611
aS'SI1881.WAV'
p3612
aS'SI2087.WAV'
p3613
aS'SI621.WAV'
p3614
aS'SX171.WAV'
p3615
aS'SX261.WAV'
p3616
aS'SX351.WAV'
p3617
aS'SX441.WAV'
p3618
aS'SX81.WAV'
p3619
asS'MRJB1'
p3620
(lp3621
S'SA1.WAV'
p3622
aS'SA2.WAV'
p3623
aS'SI1020.WAV'
p3624
aS'SI1413.WAV'
p3625
aS'SI2021.WAV'
p3626
aS'SX120.WAV'
p3627
aS'SX210.WAV'
p3628
aS'SX30.WAV'
p3629
aS'SX300.WAV'
p3630
aS'SX390.WAV'
p3631
asS'MDRB0'
p3632
(lp3633
S'SA1.WAV'
p3634
aS'SA2.WAV'
p3635
aS'SI1174.WAV'
p3636
aS'SI2109.WAV'
p3637
aS'SI544.WAV'
p3638
aS'SX184.WAV'
p3639
aS'SX274.WAV'
p3640
aS'SX364.WAV'
p3641
aS'SX4.WAV'
p3642
aS'SX94.WAV'
p3643
asS'FLEH0'
p3644
(lp3645
S'SA1.WAV'
p3646
aS'SA2.WAV'
p3647
aS'SI1051.WAV'
p3648
aS'SI1681.WAV'
p3649
aS'SI2311.WAV'
p3650
aS'SX151.WAV'
p3651
aS'SX241.WAV'
p3652
aS'SX331.WAV'
p3653
aS'SX421.WAV'
p3654
aS'SX61.WAV'
p3655
asS'MEGJ0'
p3656
(lp3657
S'SA1.WAV'
p3658
aS'SA2.WAV'
p3659
aS'SI1337.WAV'
p3660
aS'SI1967.WAV'
p3661
aS'SI707.WAV'
p3662
aS'SX167.WAV'
p3663
aS'SX257.WAV'
p3664
aS'SX3.WAV'
p3665
aS'SX437.WAV'
p3666
aS'SX77.WAV'
p3667
asS'MCAL0'
p3668
(lp3669
S'SA1.WAV'
p3670
aS'SA2.WAV'
p3671
aS'SI1138.WAV'
p3672
aS'SI1768.WAV'
p3673
aS'SI508.WAV'
p3674
aS'SX148.WAV'
p3675
aS'SX238.WAV'
p3676
aS'SX328.WAV'
p3677
aS'SX418.WAV'
p3678
aS'SX58.WAV'
p3679
asS'MJKR0'
p3680
(lp3681
S'SA1.WAV'
p3682
aS'SA2.WAV'
p3683
aS'SI1201.WAV'
p3684
aS'SI1831.WAV'
p3685
aS'SI571.WAV'
p3686
aS'SX121.WAV'
p3687
aS'SX211.WAV'
p3688
aS'SX301.WAV'
p3689
aS'SX31.WAV'
p3690
aS'SX391.WAV'
p3691
asS'MJMP0'
p3692
(lp3693
S'SA1.WAV'
p3694
aS'SA2.WAV'
p3695
aS'SI1535.WAV'
p3696
aS'SI1791.WAV'
p3697
aS'SI905.WAV'
p3698
aS'SX185.WAV'
p3699
aS'SX275.WAV'
p3700
aS'SX365.WAV'
p3701
aS'SX5.WAV'
p3702
aS'SX95.WAV'
p3703
asS'FMCM0'
p3704
(lp3705
S'SA1.WAV'
p3706
aS'SA2.WAV'
p3707
aS'SI1180.WAV'
p3708
aS'SI1810.WAV'
p3709
aS'SI550.WAV'
p3710
aS'SX10.WAV'
p3711
aS'SX100.WAV'
p3712
aS'SX190.WAV'
p3713
aS'SX280.WAV'
p3714
aS'SX370.WAV'
p3715
asS'MDWK0'
p3716
(lp3717
S'SA1.WAV'
p3718
aS'SA2.WAV'
p3719
aS'SI1540.WAV'
p3720
aS'SI2170.WAV'
p3721
aS'SI910.WAV'
p3722
aS'SX10.WAV'
p3723
aS'SX100.WAV'
p3724
aS'SX190.WAV'
p3725
aS'SX280.WAV'
p3726
aS'SX370.WAV'
p3727
asS'MHXL0'
p3728
(lp3729
S'SA1.WAV'
p3730
aS'SA2.WAV'
p3731
aS'SI1772.WAV'
p3732
aS'SI512.WAV'
p3733
aS'SI612.WAV'
p3734
aS'SX152.WAV'
p3735
aS'SX242.WAV'
p3736
aS'SX332.WAV'
p3737
aS'SX422.WAV'
p3738
aS'SX62.WAV'
p3739
asS'MKAG0'
p3740
(lp3741
S'SA1.WAV'
p3742
aS'SA2.WAV'
p3743
aS'SI1609.WAV'
p3744
aS'SI2239.WAV'
p3745
aS'SI979.WAV'
p3746
aS'SX169.WAV'
p3747
aS'SX259.WAV'
p3748
aS'SX30.WAV'
p3749
aS'SX439.WAV'
p3750
aS'SX79.WAV'
p3751
asS'MCLK0'
p3752
(lp3753
S'SA1.WAV'
p3754
aS'SA2.WAV'
p3755
aS'SI1660.WAV'
p3756
aS'SI2290.WAV'
p3757
aS'SI650.WAV'
p3758
aS'SX130.WAV'
p3759
aS'SX220.WAV'
p3760
aS'SX310.WAV'
p3761
aS'SX40.WAV'
p3762
aS'SX400.WAV'
p3763
asS'FJSA0'
p3764
(lp3765
S'SA1.WAV'
p3766
aS'SA2.WAV'
p3767
aS'SI1379.WAV'
p3768
aS'SI2009.WAV'
p3769
aS'SI749.WAV'
p3770
aS'SX119.WAV'
p3771
aS'SX209.WAV'
p3772
aS'SX29.WAV'
p3773
aS'SX299.WAV'
p3774
aS'SX389.WAV'
p3775
asS'MJRA0'
p3776
(lp3777
S'SA1.WAV'
p3778
aS'SA2.WAV'
p3779
aS'SI1236.WAV'
p3780
aS'SI1866.WAV'
p3781
aS'SI606.WAV'
p3782
aS'SX156.WAV'
p3783
aS'SX246.WAV'
p3784
aS'SX336.WAV'
p3785
aS'SX426.WAV'
p3786
aS'SX66.WAV'
p3787
asS'MCTH0'
p3788
(lp3789
S'SA1.WAV'
p3790
aS'SA2.WAV'
p3791
aS'SI1209.WAV'
p3792
aS'SI1839.WAV'
p3793
aS'SI579.WAV'
p3794
aS'SX129.WAV'
p3795
aS'SX219.WAV'
p3796
aS'SX309.WAV'
p3797
aS'SX39.WAV'
p3798
aS'SX399.WAV'
p3799
asS'MPRD0'
p3800
(lp3801
S'SA1.WAV'
p3802
aS'SA2.WAV'
p3803
aS'SI1431.WAV'
p3804
aS'SI2061.WAV'
p3805
aS'SI801.WAV'
p3806
aS'SX171.WAV'
p3807
aS'SX261.WAV'
p3808
aS'SX351.WAV'
p3809
aS'SX441.WAV'
p3810
aS'SX81.WAV'
p3811
asS'MHBS0'
p3812
(lp3813
S'SA1.WAV'
p3814
aS'SA2.WAV'
p3815
aS'SI1575.WAV'
p3816
aS'SI2205.WAV'
p3817
aS'SI945.WAV'
p3818
aS'SX135.WAV'
p3819
aS'SX225.WAV'
p3820
aS'SX315.WAV'
p3821
aS'SX405.WAV'
p3822
aS'SX45.WAV'
p3823
asS'MRFL0'
p3824
(lp3825
S'SA1.WAV'
p3826
aS'SA2.WAV'
p3827
aS'SI1156.WAV'
p3828
aS'SI1786.WAV'
p3829
aS'SI526.WAV'
p3830
aS'SX166.WAV'
p3831
aS'SX256.WAV'
p3832
aS'SX346.WAV'
p3833
aS'SX436.WAV'
p3834
aS'SX76.WAV'
p3835
asS'MRGS0'
p3836
(lp3837
S'SA1.WAV'
p3838
aS'SA2.WAV'
p3839
aS'SI1356.WAV'
p3840
aS'SI1986.WAV'
p3841
aS'SI726.WAV'
p3842
aS'SX186.WAV'
p3843
aS'SX276.WAV'
p3844
aS'SX366.WAV'
p3845
aS'SX6.WAV'
p3846
aS'SX96.WAV'
p3847
asS'FLMC0'
p3848
(lp3849
S'SA1.WAV'
p3850
aS'SA2.WAV'
p3851
aS'SI1372.WAV'
p3852
aS'SI2002.WAV'
p3853
aS'SI742.WAV'
p3854
aS'SX112.WAV'
p3855
aS'SX22.WAV'
p3856
aS'SX292.WAV'
p3857
aS'SX336.WAV'
p3858
aS'SX382.WAV'
p3859
asS'FSPM0'
p3860
(lp3861
S'SA1.WAV'
p3862
aS'SA2.WAV'
p3863
aS'SI1241.WAV'
p3864
aS'SI1871.WAV'
p3865
aS'SI611.WAV'
p3866
aS'SX161.WAV'
p3867
aS'SX251.WAV'
p3868
aS'SX341.WAV'
p3869
aS'SX431.WAV'
p3870
aS'SX71.WAV'
p3871
asS'MKXL0'
p3872
(lp3873
S'SA1.WAV'
p3874
aS'SA2.WAV'
p3875
aS'SI1185.WAV'
p3876
aS'SI1815.WAV'
p3877
aS'SI1958.WAV'
p3878
aS'SX105.WAV'
p3879
aS'SX15.WAV'
p3880
aS'SX195.WAV'
p3881
aS'SX285.WAV'
p3882
aS'SX375.WAV'
p3883
asS'FNMR0'
p3884
(lp3885
S'SA1.WAV'
p3886
aS'SA2.WAV'
p3887
aS'SI1399.WAV'
p3888
aS'SI2029.WAV'
p3889
aS'SI769.WAV'
p3890
aS'SX139.WAV'
p3891
aS'SX229.WAV'
p3892
aS'SX319.WAV'
p3893
aS'SX409.WAV'
p3894
aS'SX49.WAV'
p3895
asS'FSJK1'
p3896
(lp3897
S'SA1.WAV'
p3898
aS'SA2.WAV'
p3899
aS'SI1025.WAV'
p3900
aS'SI2285.WAV'
p3901
aS'SI696.WAV'
p3902
aS'SX125.WAV'
p3903
aS'SX215.WAV'
p3904
aS'SX305.WAV'
p3905
aS'SX35.WAV'
p3906
aS'SX395.WAV'
p3907
asS'MMAB1'
p3908
(lp3909
S'SA1.WAV'
p3910
aS'SA2.WAV'
p3911
aS'SI1494.WAV'
p3912
aS'SI2124.WAV'
p3913
aS'SI864.WAV'
p3914
aS'SX144.WAV'
p3915
aS'SX234.WAV'
p3916
aS'SX324.WAV'
p3917
aS'SX414.WAV'
p3918
aS'SX54.WAV'
p3919
asS'MSTK0'
p3920
(lp3921
S'SA1.WAV'
p3922
aS'SA2.WAV'
p3923
aS'SI1024.WAV'
p3924
aS'SI2222.WAV'
p3925
aS'SI2284.WAV'
p3926
aS'SX124.WAV'
p3927
aS'SX214.WAV'
p3928
aS'SX304.WAV'
p3929
aS'SX34.WAV'
p3930
aS'SX394.WAV'
p3931
asS'FCMG0'
p3932
(lp3933
S'SA1.WAV'
p3934
aS'SA2.WAV'
p3935
aS'SI1142.WAV'
p3936
aS'SI1242.WAV'
p3937
aS'SI1872.WAV'
p3938
aS'SX162.WAV'
p3939
aS'SX252.WAV'
p3940
aS'SX342.WAV'
p3941
aS'SX432.WAV'
p3942
aS'SX72.WAV'
p3943
asS'MCMJ0'
p3944
(lp3945
S'SA1.WAV'
p3946
aS'SA2.WAV'
p3947
aS'SI1094.WAV'
p3948
aS'SI464.WAV'
p3949
aS'SI602.WAV'
p3950
aS'SX104.WAV'
p3951
aS'SX14.WAV'
p3952
aS'SX194.WAV'
p3953
aS'SX284.WAV'
p3954
aS'SX374.WAV'
p3955
asS'MJRH0'
p3956
(lp3957
S'SA1.WAV'
p3958
aS'SA2.WAV'
p3959
aS'SI1125.WAV'
p3960
aS'SI1755.WAV'
p3961
aS'SI1840.WAV'
p3962
aS'SX135.WAV'
p3963
aS'SX225.WAV'
p3964
aS'SX315.WAV'
p3965
aS'SX405.WAV'
p3966
aS'SX45.WAV'
p3967
asS'MJRH1'
p3968
(lp3969
S'SA1.WAV'
p3970
aS'SA2.WAV'
p3971
aS'SI1558.WAV'
p3972
aS'SI1774.WAV'
p3973
aS'SI514.WAV'
p3974
aS'SX154.WAV'
p3975
aS'SX244.WAV'
p3976
aS'SX334.WAV'
p3977
aS'SX424.WAV'
p3978
aS'SX64.WAV'
p3979
asS'MSVS0'
p3980
(lp3981
S'SA1.WAV'
p3982
aS'SA2.WAV'
p3983
aS'SI1568.WAV'
p3984
aS'SI2198.WAV'
p3985
aS'SI938.WAV'
p3986
aS'SX128.WAV'
p3987
aS'SX218.WAV'
p3988
aS'SX308.WAV'
p3989
aS'SX38.WAV'
p3990
aS'SX398.WAV'
p3991
asS'FHEW0'
p3992
(lp3993
S'SA1.WAV'
p3994
aS'SA2.WAV'
p3995
aS'SI2023.WAV'
p3996
aS'SI690.WAV'
p3997
aS'SI763.WAV'
p3998
aS'SX133.WAV'
p3999
aS'SX223.WAV'
p4000
aS'SX313.WAV'
p4001
aS'SX403.WAV'
p4002
aS'SX43.WAV'
p4003
asS'FSMS1'
p4004
(lp4005
S'SA1.WAV'
p4006
aS'SA2.WAV'
p4007
aS'SI1504.WAV'
p4008
aS'SI2134.WAV'
p4009
aS'SI874.WAV'
p4010
aS'SX154.WAV'
p4011
aS'SX244.WAV'
p4012
aS'SX334.WAV'
p4013
aS'SX347.WAV'
p4014
aS'SX64.WAV'
p4015
asS'MGWT0'
p4016
(lp4017
S'SA1.WAV'
p4018
aS'SA2.WAV'
p4019
aS'SI1539.WAV'
p4020
aS'SI2169.WAV'
p4021
aS'SI909.WAV'
p4022
aS'SX189.WAV'
p4023
aS'SX279.WAV'
p4024
aS'SX369.WAV'
p4025
aS'SX9.WAV'
p4026
aS'SX99.WAV'
p4027
asS'MZMB0'
p4028
(lp4029
S'SA1.WAV'
p4030
aS'SA2.WAV'
p4031
aS'SI1166.WAV'
p4032
aS'SI1796.WAV'
p4033
aS'SI536.WAV'
p4034
aS'SX176.WAV'
p4035
aS'SX266.WAV'
p4036
aS'SX356.WAV'
p4037
aS'SX446.WAV'
p4038
aS'SX86.WAV'
p4039
asS'MGAW0'
p4040
(lp4041
S'SA1.WAV'
p4042
aS'SA2.WAV'
p4043
aS'SI1165.WAV'
p4044
aS'SI1802.WAV'
p4045
aS'SI535.WAV'
p4046
aS'SX175.WAV'
p4047
aS'SX265.WAV'
p4048
aS'SX355.WAV'
p4049
aS'SX445.WAV'
p4050
aS'SX85.WAV'
p4051
asS'MEJL0'
p4052
(lp4053
S'SA1.WAV'
p4054
aS'SA2.WAV'
p4055
aS'SI1592.WAV'
p4056
aS'SI1654.WAV'
p4057
aS'SI962.WAV'
p4058
aS'SX152.WAV'
p4059
aS'SX242.WAV'
p4060
aS'SX332.WAV'
p4061
aS'SX422.WAV'
p4062
aS'SX62.WAV'
p4063
asS'MCCS0'
p4064
(lp4065
S'SA1.WAV'
p4066
aS'SA2.WAV'
p4067
aS'SI1469.WAV'
p4068
aS'SI2099.WAV'
p4069
aS'SI839.WAV'
p4070
aS'SX119.WAV'
p4071
aS'SX209.WAV'
p4072
aS'SX29.WAV'
p4073
aS'SX299.WAV'
p4074
aS'SX389.WAV'
p4075
asS'MRFK0'
p4076
(lp4077
S'SA1.WAV'
p4078
aS'SA2.WAV'
p4079
aS'SI1076.WAV'
p4080
aS'SI1706.WAV'
p4081
aS'SI2336.WAV'
p4082
aS'SX176.WAV'
p4083
aS'SX266.WAV'
p4084
aS'SX356.WAV'
p4085
aS'SX446.WAV'
p4086
aS'SX86.WAV'
p4087
asS'MRLK0'
p4088
(lp4089
S'SA1.WAV'
p4090
aS'SA2.WAV'
p4091
aS'SI1468.WAV'
p4092
aS'SI2140.WAV'
p4093
aS'SI843.WAV'
p4094
aS'SX123.WAV'
p4095
aS'SX213.WAV'
p4096
aS'SX303.WAV'
p4097
aS'SX33.WAV'
p4098
aS'SX393.WAV'
p4099
asS'FELC0'
p4100
(lp4101
S'SA1.WAV'
p4102
aS'SA2.WAV'
p4103
aS'SI1386.WAV'
p4104
aS'SI2016.WAV'
p4105
aS'SI756.WAV'
p4106
aS'SX126.WAV'
p4107
aS'SX216.WAV'
p4108
aS'SX306.WAV'
p4109
aS'SX36.WAV'
p4110
aS'SX396.WAV'
p4111
asS'FDRW0'
p4112
(lp4113
S'SA1.WAV'
p4114
aS'SA2.WAV'
p4115
aS'SI1283.WAV'
p4116
aS'SI1423.WAV'
p4117
aS'SI653.WAV'
p4118
aS'SX113.WAV'
p4119
aS'SX203.WAV'
p4120
aS'SX23.WAV'
p4121
aS'SX293.WAV'
p4122
aS'SX383.WAV'
p4123
asS'MMDS0'
p4124
(lp4125
S'SA1.WAV'
p4126
aS'SA2.WAV'
p4127
aS'SI1343.WAV'
p4128
aS'SI1973.WAV'
p4129
aS'SI713.WAV'
p4130
aS'SX173.WAV'
p4131
aS'SX263.WAV'
p4132
aS'SX353.WAV'
p4133
aS'SX443.WAV'
p4134
aS'SX83.WAV'
p4135
asS'MPAR0'
p4136
(lp4137
S'SA1.WAV'
p4138
aS'SA2.WAV'
p4139
aS'SI1576.WAV'
p4140
aS'SI2206.WAV'
p4141
aS'SI946.WAV'
p4142
aS'SX136.WAV'
p4143
aS'SX226.WAV'
p4144
aS'SX316.WAV'
p4145
aS'SX406.WAV'
p4146
aS'SX46.WAV'
p4147
asS'FAWF0'
p4148
(lp4149
S'SA1.WAV'
p4150
aS'SA2.WAV'
p4151
aS'SI1000.WAV'
p4152
aS'SI1630.WAV'
p4153
aS'SI2260.WAV'
p4154
aS'SX10.WAV'
p4155
aS'SX100.WAV'
p4156
aS'SX190.WAV'
p4157
aS'SX280.WAV'
p4158
aS'SX370.WAV'
p4159
asS'FALR0'
p4160
(lp4161
S'SA1.WAV'
p4162
aS'SA2.WAV'
p4163
aS'SI1325.WAV'
p4164
aS'SI1955.WAV'
p4165
aS'SI695.WAV'
p4166
aS'SX155.WAV'
p4167
aS'SX245.WAV'
p4168
aS'SX335.WAV'
p4169
aS'SX425.WAV'
p4170
aS'SX65.WAV'
p4171
asS'FEAC0'
p4172
(lp4173
S'SA1.WAV'
p4174
aS'SA2.WAV'
p4175
aS'SI1245.WAV'
p4176
aS'SI1875.WAV'
p4177
aS'SI615.WAV'
p4178
aS'SX165.WAV'
p4179
aS'SX255.WAV'
p4180
aS'SX345.WAV'
p4181
aS'SX435.WAV'
p4182
aS'SX75.WAV'
p4183
asS'MKLT0'
p4184
(lp4185
S'SA1.WAV'
p4186
aS'SA2.WAV'
p4187
aS'SI1213.WAV'
p4188
aS'SI1843.WAV'
p4189
aS'SI583.WAV'
p4190
aS'SX133.WAV'
p4191
aS'SX223.WAV'
p4192
aS'SX313.WAV'
p4193
aS'SX403.WAV'
p4194
aS'SX43.WAV'
p4195
asS'MSAT0'
p4196
(lp4197
S'SA1.WAV'
p4198
aS'SA2.WAV'
p4199
aS'SI1526.WAV'
p4200
aS'SI2156.WAV'
p4201
aS'SI896.WAV'
p4202
aS'SX176.WAV'
p4203
aS'SX266.WAV'
p4204
aS'SX356.WAV'
p4205
aS'SX446.WAV'
p4206
aS'SX86.WAV'
p4207
asS'MLBC0'
p4208
(lp4209
S'SA1.WAV'
p4210
aS'SA2.WAV'
p4211
aS'SI1239.WAV'
p4212
aS'SI1869.WAV'
p4213
aS'SI609.WAV'
p4214
aS'SX159.WAV'
p4215
aS'SX249.WAV'
p4216
aS'SX339.WAV'
p4217
aS'SX429.WAV'
p4218
aS'SX69.WAV'
p4219
asS'FMJF0'
p4220
(lp4221
S'SA1.WAV'
p4222
aS'SA2.WAV'
p4223
aS'SI1254.WAV'
p4224
aS'SI1884.WAV'
p4225
aS'SI624.WAV'
p4226
aS'SX174.WAV'
p4227
aS'SX264.WAV'
p4228
aS'SX354.WAV'
p4229
aS'SX444.WAV'
p4230
aS'SX84.WAV'
p4231
asS'MCSS0'
p4232
(lp4233
S'SA1.WAV'
p4234
aS'SA2.WAV'
p4235
aS'SI1380.WAV'
p4236
aS'SI688.WAV'
p4237
aS'SI750.WAV'
p4238
aS'SX120.WAV'
p4239
aS'SX210.WAV'
p4240
aS'SX30.WAV'
p4241
aS'SX300.WAV'
p4242
aS'SX390.WAV'
p4243
asS'MRCG0'
p4244
(lp4245
S'SA1.WAV'
p4246
aS'SA2.WAV'
p4247
aS'SI1428.WAV'
p4248
aS'SI2058.WAV'
p4249
aS'SI798.WAV'
p4250
aS'SX168.WAV'
p4251
aS'SX258.WAV'
p4252
aS'SX348.WAV'
p4253
aS'SX438.WAV'
p4254
aS'SX78.WAV'
p4255
asS'FSLS0'
p4256
(lp4257
S'SA1.WAV'
p4258
aS'SA2.WAV'
p4259
aS'SI1056.WAV'
p4260
aS'SI1686.WAV'
p4261
aS'SI2316.WAV'
p4262
aS'SX156.WAV'
p4263
aS'SX202.WAV'
p4264
aS'SX246.WAV'
p4265
aS'SX426.WAV'
p4266
aS'SX66.WAV'
p4267
asS'FJLG0'
p4268
(lp4269
S'SA1.WAV'
p4270
aS'SA2.WAV'
p4271
aS'SI1506.WAV'
p4272
aS'SI1889.WAV'
p4273
aS'SI2306.WAV'
p4274
aS'SX179.WAV'
p4275
aS'SX269.WAV'
p4276
aS'SX359.WAV'
p4277
aS'SX449.WAV'
p4278
aS'SX89.WAV'
p4279
asS'MBJV0'
p4280
(lp4281
S'SA1.WAV'
p4282
aS'SA2.WAV'
p4283
aS'SI1247.WAV'
p4284
aS'SI1877.WAV'
p4285
aS'SI617.WAV'
p4286
aS'SX167.WAV'
p4287
aS'SX257.WAV'
p4288
aS'SX347.WAV'
p4289
aS'SX437.WAV'
p4290
aS'SX77.WAV'
p4291
asS'FCYL0'
p4292
(lp4293
S'SA1.WAV'
p4294
aS'SA2.WAV'
p4295
aS'SI1297.WAV'
p4296
aS'SI1927.WAV'
p4297
aS'SI667.WAV'
p4298
aS'SX127.WAV'
p4299
aS'SX217.WAV'
p4300
aS'SX349.WAV'
p4301
aS'SX37.WAV'
p4302
aS'SX397.WAV'
p4303
asS'MTPR0'
p4304
(lp4305
S'SA1.WAV'
p4306
aS'SA2.WAV'
p4307
aS'SI1600.WAV'
p4308
aS'SI2230.WAV'
p4309
aS'SI506.WAV'
p4310
aS'SX160.WAV'
p4311
aS'SX250.WAV'
p4312
aS'SX340.WAV'
p4313
aS'SX430.WAV'
p4314
aS'SX70.WAV'
p4315
asS'FSMA0'
p4316
(lp4317
S'SA1.WAV'
p4318
aS'SA2.WAV'
p4319
aS'SI1621.WAV'
p4320
aS'SI2251.WAV'
p4321
aS'SI991.WAV'
p4322
aS'SX181.WAV'
p4323
aS'SX271.WAV'
p4324
aS'SX361.WAV'
p4325
aS'SX451.WAV'
p4326
aS'SX91.WAV'
p4327
asS'MSDH0'
p4328
(lp4329
S'SA1.WAV'
p4330
aS'SA2.WAV'
p4331
aS'SI2113.WAV'
p4332
aS'SI2240.WAV'
p4333
aS'SI980.WAV'
p4334
aS'SX170.WAV'
p4335
aS'SX260.WAV'
p4336
aS'SX350.WAV'
p4337
aS'SX440.WAV'
p4338
aS'SX80.WAV'
p4339
asS'FSAG0'
p4340
(lp4341
S'SA1.WAV'
p4342
aS'SA2.WAV'
p4343
aS'SI1323.WAV'
p4344
aS'SI1953.WAV'
p4345
aS'SI693.WAV'
p4346
aS'SX153.WAV'
p4347
aS'SX243.WAV'
p4348
aS'SX333.WAV'
p4349
aS'SX423.WAV'
p4350
aS'SX63.WAV'
p4351
asS'FALK0'
p4352
(lp4353
S'SA1.WAV'
p4354
aS'SA2.WAV'
p4355
aS'SI1086.WAV'
p4356
aS'SI456.WAV'
p4357
aS'SI658.WAV'
p4358
aS'SX186.WAV'
p4359
aS'SX276.WAV'
p4360
aS'SX366.WAV'
p4361
aS'SX6.WAV'
p4362
aS'SX96.WAV'
p4363
asS'MBML0'
p4364
(lp4365
S'SA1.WAV'
p4366
aS'SA2.WAV'
p4367
aS'SI1169.WAV'
p4368
aS'SI1799.WAV'
p4369
aS'SI539.WAV'
p4370
aS'SX179.WAV'
p4371
aS'SX269.WAV'
p4372
aS'SX359.WAV'
p4373
aS'SX449.WAV'
p4374
aS'SX89.WAV'
p4375
asS'FPLS0'
p4376
(lp4377
S'SA1.WAV'
p4378
aS'SA2.WAV'
p4379
aS'SI1590.WAV'
p4380
aS'SI2220.WAV'
p4381
aS'SI960.WAV'
p4382
aS'SX150.WAV'
p4383
aS'SX240.WAV'
p4384
aS'SX3.WAV'
p4385
aS'SX330.WAV'
p4386
aS'SX60.WAV'
p4387
asS'MSMS0'
p4388
(lp4389
S'SA1.WAV'
p4390
aS'SA2.WAV'
p4391
aS'SI1433.WAV'
p4392
aS'SI2063.WAV'
p4393
aS'SI803.WAV'
p4394
aS'SX173.WAV'
p4395
aS'SX263.WAV'
p4396
aS'SX353.WAV'
p4397
aS'SX443.WAV'
p4398
aS'SX83.WAV'
p4399
asS'FKFB0'
p4400
(lp4401
S'SA1.WAV'
p4402
aS'SA2.WAV'
p4403
aS'SI1608.WAV'
p4404
aS'SI2238.WAV'
p4405
aS'SI978.WAV'
p4406
aS'SX168.WAV'
p4407
aS'SX258.WAV'
p4408
aS'SX348.WAV'
p4409
aS'SX438.WAV'
p4410
aS'SX78.WAV'
p4411
asS'MCRC0'
p4412
(lp4413
S'SA1.WAV'
p4414
aS'SA2.WAV'
p4415
aS'SI1092.WAV'
p4416
aS'SI1722.WAV'
p4417
aS'SI462.WAV'
p4418
aS'SX102.WAV'
p4419
aS'SX12.WAV'
p4420
aS'SX192.WAV'
p4421
aS'SX282.WAV'
p4422
aS'SX372.WAV'
p4423
asS'FLHD0'
p4424
(lp4425
S'SA1.WAV'
p4426
aS'SA2.WAV'
p4427
aS'SI1344.WAV'
p4428
aS'SI1827.WAV'
p4429
aS'SI1974.WAV'
p4430
aS'SX174.WAV'
p4431
aS'SX264.WAV'
p4432
aS'SX354.WAV'
p4433
aS'SX444.WAV'
p4434
aS'SX84.WAV'
p4435
asS'FJSJ0'
p4436
(lp4437
S'SA1.WAV'
p4438
aS'SA2.WAV'
p4439
aS'SI1484.WAV'
p4440
aS'SI2114.WAV'
p4441
aS'SI854.WAV'
p4442
aS'SX134.WAV'
p4443
aS'SX224.WAV'
p4444
aS'SX314.WAV'
p4445
aS'SX404.WAV'
p4446
aS'SX44.WAV'
p4447
asS'MDHS0'
p4448
(lp4449
S'SA1.WAV'
p4450
aS'SA2.WAV'
p4451
aS'SI1530.WAV'
p4452
aS'SI2160.WAV'
p4453
aS'SI900.WAV'
p4454
aS'SX180.WAV'
p4455
aS'SX270.WAV'
p4456
aS'SX360.WAV'
p4457
aS'SX450.WAV'
p4458
aS'SX90.WAV'
p4459
asS'MEDR0'
p4460
(lp4461
S'SA1.WAV'
p4462
aS'SA2.WAV'
p4463
aS'SI1374.WAV'
p4464
aS'SI2004.WAV'
p4465
aS'SI744.WAV'
p4466
aS'SX114.WAV'
p4467
aS'SX204.WAV'
p4468
aS'SX24.WAV'
p4469
aS'SX294.WAV'
p4470
aS'SX384.WAV'
p4471
asS'MTAB0'
p4472
(lp4473
S'SA1.WAV'
p4474
aS'SA2.WAV'
p4475
aS'SI1572.WAV'
p4476
aS'SI2202.WAV'
p4477
aS'SI942.WAV'
p4478
aS'SX132.WAV'
p4479
aS'SX222.WAV'
p4480
aS'SX312.WAV'
p4481
aS'SX402.WAV'
p4482
aS'SX42.WAV'
p4483
asS'MRKO0'
p4484
(lp4485
S'SA1.WAV'
p4486
aS'SA2.WAV'
p4487
aS'SI1397.WAV'
p4488
aS'SI2027.WAV'
p4489
aS'SI767.WAV'
p4490
aS'SX137.WAV'
p4491
aS'SX227.WAV'
p4492
aS'SX317.WAV'
p4493
aS'SX407.WAV'
p4494
aS'SX47.WAV'
p4495
asS'FSKP0'
p4496
(lp4497
S'SA1.WAV'
p4498
aS'SA2.WAV'
p4499
aS'SI1098.WAV'
p4500
aS'SI1728.WAV'
p4501
aS'SI468.WAV'
p4502
aS'SX108.WAV'
p4503
aS'SX18.WAV'
p4504
aS'SX198.WAV'
p4505
aS'SX288.WAV'
p4506
aS'SX378.WAV'
p4507
asS'MFWK0'
p4508
(lp4509
S'SA1.WAV'
p4510
aS'SA2.WAV'
p4511
aS'SI1249.WAV'
p4512
aS'SI1879.WAV'
p4513
aS'SI619.WAV'
p4514
aS'SX169.WAV'
p4515
aS'SX259.WAV'
p4516
aS'SX349.WAV'
p4517
aS'SX439.WAV'
p4518
aS'SX79.WAV'
p4519
asS'MTLS0'
p4520
(lp4521
S'SA1.WAV'
p4522
aS'SA2.WAV'
p4523
aS'SI1370.WAV'
p4524
aS'SI2000.WAV'
p4525
aS'SI740.WAV'
p4526
aS'SX110.WAV'
p4527
aS'SX20.WAV'
p4528
aS'SX200.WAV'
p4529
aS'SX290.WAV'
p4530
aS'SX380.WAV'
p4531
asS'MKAJ0'
p4532
(lp4533
S'SA1.WAV'
p4534
aS'SA2.WAV'
p4535
aS'SI1414.WAV'
p4536
aS'SI2044.WAV'
p4537
aS'SI784.WAV'
p4538
aS'SX154.WAV'
p4539
aS'SX244.WAV'
p4540
aS'SX334.WAV'
p4541
aS'SX424.WAV'
p4542
aS'SX64.WAV'
p4543
asS'MJEE0'
p4544
(lp4545
S'SA1.WAV'
p4546
aS'SA2.WAV'
p4547
aS'SI1237.WAV'
p4548
aS'SI1867.WAV'
p4549
aS'SI607.WAV'
p4550
aS'SX157.WAV'
p4551
aS'SX247.WAV'
p4552
aS'SX337.WAV'
p4553
aS'SX427.WAV'
p4554
aS'SX67.WAV'
p4555
asS'MREW1'
p4556
(lp4557
S'SA1.WAV'
p4558
aS'SA2.WAV'
p4559
aS'SI1500.WAV'
p4560
aS'SI2130.WAV'
p4561
aS'SI870.WAV'
p4562
aS'SX150.WAV'
p4563
aS'SX240.WAV'
p4564
aS'SX330.WAV'
p4565
aS'SX420.WAV'
p4566
aS'SX60.WAV'
p4567
asS'FMML0'
p4568
(lp4569
S'SA1.WAV'
p4570
aS'SA2.WAV'
p4571
aS'SI1040.WAV'
p4572
aS'SI1670.WAV'
p4573
aS'SI2300.WAV'
p4574
aS'SX140.WAV'
p4575
aS'SX230.WAV'
p4576
aS'SX320.WAV'
p4577
aS'SX410.WAV'
p4578
aS'SX50.WAV'
p4579
asS'MDLR0'
p4580
(lp4581
S'SA1.WAV'
p4582
aS'SA2.WAV'
p4583
aS'SI1233.WAV'
p4584
aS'SI1863.WAV'
p4585
aS'SI603.WAV'
p4586
aS'SX153.WAV'
p4587
aS'SX243.WAV'
p4588
aS'SX333.WAV'
p4589
aS'SX423.WAV'
p4590
aS'SX63.WAV'
p4591
asS'MDLR1'
p4592
(lp4593
S'SA1.WAV'
p4594
aS'SA2.WAV'
p4595
aS'SI1299.WAV'
p4596
aS'SI1929.WAV'
p4597
aS'SI669.WAV'
p4598
aS'SX129.WAV'
p4599
aS'SX219.WAV'
p4600
aS'SX309.WAV'
p4601
aS'SX39.WAV'
p4602
aS'SX399.WAV'
p4603
asS'MRTK0'
p4604
(lp4605
S'SA1.WAV'
p4606
aS'SA2.WAV'
p4607
aS'SI1093.WAV'
p4608
aS'SI1723.WAV'
p4609
aS'SI1750.WAV'
p4610
aS'SX103.WAV'
p4611
aS'SX13.WAV'
p4612
aS'SX193.WAV'
p4613
aS'SX283.WAV'
p4614
aS'SX373.WAV'
p4615
asS'MREE0'
p4616
(lp4617
S'SA1.WAV'
p4618
aS'SA2.WAV'
p4619
aS'SI1104.WAV'
p4620
aS'SI1734.WAV'
p4621
aS'SI1959.WAV'
p4622
aS'SX114.WAV'
p4623
aS'SX204.WAV'
p4624
aS'SX24.WAV'
p4625
aS'SX294.WAV'
p4626
aS'SX384.WAV'
p4627
asS'FJXP0'
p4628
(lp4629
S'SA1.WAV'
p4630
aS'SA2.WAV'
p4631
aS'SI1122.WAV'
p4632
aS'SI1752.WAV'
p4633
aS'SI492.WAV'
p4634
aS'SX132.WAV'
p4635
aS'SX222.WAV'
p4636
aS'SX312.WAV'
p4637
aS'SX402.WAV'
p4638
aS'SX42.WAV'
p4639
asS'MBJK0'
p4640
(lp4641
S'SA1.WAV'
p4642
aS'SA2.WAV'
p4643
aS'SI1175.WAV'
p4644
aS'SI2128.WAV'
p4645
aS'SI545.WAV'
p4646
aS'SX185.WAV'
p4647
aS'SX275.WAV'
p4648
aS'SX365.WAV'
p4649
aS'SX5.WAV'
p4650
aS'SX95.WAV'
p4651
asS'MTQC0'
p4652
(lp4653
S'SA1.WAV'
p4654
aS'SA2.WAV'
p4655
aS'SI1441.WAV'
p4656
aS'SI2071.WAV'
p4657
aS'SI480.WAV'
p4658
aS'SX181.WAV'
p4659
aS'SX271.WAV'
p4660
aS'SX361.WAV'
p4661
aS'SX451.WAV'
p4662
aS'SX91.WAV'
p4663
asS'FLJA0'
p4664
(lp4665
S'SA1.WAV'
p4666
aS'SA2.WAV'
p4667
aS'SI1078.WAV'
p4668
aS'SI1708.WAV'
p4669
aS'SI2338.WAV'
p4670
aS'SX178.WAV'
p4671
aS'SX268.WAV'
p4672
aS'SX358.WAV'
p4673
aS'SX448.WAV'
p4674
aS'SX88.WAV'
p4675
asS'MSTF0'
p4676
(lp4677
S'SA1.WAV'
p4678
aS'SA2.WAV'
p4679
aS'SI1396.WAV'
p4680
aS'SI766.WAV'
p4681
aS'SI852.WAV'
p4682
aS'SX136.WAV'
p4683
aS'SX226.WAV'
p4684
aS'SX316.WAV'
p4685
aS'SX406.WAV'
p4686
aS'SX46.WAV'
p4687
asS'MJAE0'
p4688
(lp4689
S'SA1.WAV'
p4690
aS'SA2.WAV'
p4691
aS'SI1524.WAV'
p4692
aS'SI1999.WAV'
p4693
aS'SI2154.WAV'
p4694
aS'SX174.WAV'
p4695
aS'SX264.WAV'
p4696
aS'SX354.WAV'
p4697
aS'SX444.WAV'
p4698
aS'SX84.WAV'
p4699
asS'MRBC0'
p4700
(lp4701
S'SA1.WAV'
p4702
aS'SA2.WAV'
p4703
aS'SI1665.WAV'
p4704
aS'SI1859.WAV'
p4705
aS'SI599.WAV'
p4706
aS'SX149.WAV'
p4707
aS'SX239.WAV'
p4708
aS'SX329.WAV'
p4709
aS'SX419.WAV'
p4710
aS'SX59.WAV'
p4711
asS'FREW0'
p4712
(lp4713
S'SA1.WAV'
p4714
aS'SA2.WAV'
p4715
aS'SI1030.WAV'
p4716
aS'SI1280.WAV'
p4717
aS'SI1910.WAV'
p4718
aS'SX110.WAV'
p4719
aS'SX20.WAV'
p4720
aS'SX200.WAV'
p4721
aS'SX290.WAV'
p4722
aS'SX380.WAV'
p4723
asS'MMAA0'
p4724
(lp4725
S'SA1.WAV'
p4726
aS'SA2.WAV'
p4727
aS'SI1588.WAV'
p4728
aS'SI2105.WAV'
p4729
aS'SI845.WAV'
p4730
aS'SX125.WAV'
p4731
aS'SX215.WAV'
p4732
aS'SX305.WAV'
p4733
aS'SX35.WAV'
p4734
aS'SX395.WAV'
p4735
asS'FGMD0'
p4736
(lp4737
S'SA1.WAV'
p4738
aS'SA2.WAV'
p4739
aS'SI1943.WAV'
p4740
aS'SI2107.WAV'
p4741
aS'SI683.WAV'
p4742
aS'SX143.WAV'
p4743
aS'SX233.WAV'
p4744
aS'SX323.WAV'
p4745
aS'SX413.WAV'
p4746
aS'SX53.WAV'
p4747
asS'MSJS1'
p4748
(lp4749
S'SA1.WAV'
p4750
aS'SA2.WAV'
p4751
aS'SI1899.WAV'
p4752
aS'SI639.WAV'
p4753
aS'SI869.WAV'
p4754
aS'SX189.WAV'
p4755
aS'SX279.WAV'
p4756
aS'SX369.WAV'
p4757
aS'SX9.WAV'
p4758
aS'SX99.WAV'
p4759
asS'MJES0'
p4760
(lp4761
S'SA1.WAV'
p4762
aS'SA2.WAV'
p4763
aS'SI1384.WAV'
p4764
aS'SI2014.WAV'
p4765
aS'SI754.WAV'
p4766
aS'SX124.WAV'
p4767
aS'SX214.WAV'
p4768
aS'SX304.WAV'
p4769
aS'SX34.WAV'
p4770
aS'SX394.WAV'
p4771
asS'MJBR0'
p4772
(lp4773
S'SA1.WAV'
p4774
aS'SA2.WAV'
p4775
aS'SI1001.WAV'
p4776
aS'SI1631.WAV'
p4777
aS'SI2261.WAV'
p4778
aS'SX101.WAV'
p4779
aS'SX11.WAV'
p4780
aS'SX191.WAV'
p4781
aS'SX281.WAV'
p4782
aS'SX371.WAV'
p4783
asS'MTWH0'
p4784
(lp4785
S'SA1.WAV'
p4786
aS'SA2.WAV'
p4787
aS'SI1190.WAV'
p4788
aS'SI1629.WAV'
p4789
aS'SI1820.WAV'
p4790
aS'SX110.WAV'
p4791
aS'SX20.WAV'
p4792
aS'SX200.WAV'
p4793
aS'SX290.WAV'
p4794
aS'SX380.WAV'
p4795
asS'MJJB0'
p4796
(lp4797
S'SA1.WAV'
p4798
aS'SA2.WAV'
p4799
aS'SI1139.WAV'
p4800
aS'SI1277.WAV'
p4801
aS'SI1769.WAV'
p4802
aS'SX149.WAV'
p4803
aS'SX239.WAV'
p4804
aS'SX329.WAV'
p4805
aS'SX419.WAV'
p4806
aS'SX59.WAV'
p4807
asS'MJTC0'
p4808
(lp4809
S'SA1.WAV'
p4810
aS'SA2.WAV'
p4811
aS'SI1460.WAV'
p4812
aS'SI2090.WAV'
p4813
aS'SI830.WAV'
p4814
aS'SX110.WAV'
p4815
aS'SX20.WAV'
p4816
aS'SX200.WAV'
p4817
aS'SX290.WAV'
p4818
aS'SX380.WAV'
p4819
asS'MBNS0'
p4820
(lp4821
S'SA1.WAV'
p4822
aS'SA2.WAV'
p4823
aS'SI1220.WAV'
p4824
aS'SI1850.WAV'
p4825
aS'SI590.WAV'
p4826
aS'SX140.WAV'
p4827
aS'SX230.WAV'
p4828
aS'SX320.WAV'
p4829
aS'SX410.WAV'
p4830
aS'SX50.WAV'
p4831
asS'FMJB0'
p4832
(lp4833
S'SA1.WAV'
p4834
aS'SA2.WAV'
p4835
aS'SI1177.WAV'
p4836
aS'SI1807.WAV'
p4837
aS'SI547.WAV'
p4838
aS'SX187.WAV'
p4839
aS'SX277.WAV'
p4840
aS'SX367.WAV'
p4841
aS'SX7.WAV'
p4842
aS'SX97.WAV'
p4843
asS'FDHC0'
p4844
(lp4845
S'SA1.WAV'
p4846
aS'SA2.WAV'
p4847
aS'SI1559.WAV'
p4848
aS'SI2189.WAV'
p4849
aS'SI929.WAV'
p4850
aS'SX119.WAV'
p4851
aS'SX209.WAV'
p4852
aS'SX29.WAV'
p4853
aS'SX299.WAV'
p4854
aS'SX389.WAV'
p4855
asS'MJLS0'
p4856
(lp4857
S'SA1.WAV'
p4858
aS'SA2.WAV'
p4859
aS'SI1096.WAV'
p4860
aS'SI1726.WAV'
p4861
aS'SI466.WAV'
p4862
aS'SX106.WAV'
p4863
aS'SX16.WAV'
p4864
aS'SX196.WAV'
p4865
aS'SX286.WAV'
p4866
aS'SX376.WAV'
p4867
asS'MESD0'
p4868
(lp4869
S'SA1.WAV'
p4870
aS'SA2.WAV'
p4871
aS'SI1002.WAV'
p4872
aS'SI1632.WAV'
p4873
aS'SI2262.WAV'
p4874
aS'SX102.WAV'
p4875
aS'SX12.WAV'
p4876
aS'SX192.WAV'
p4877
aS'SX282.WAV'
p4878
aS'SX372.WAV'
p4879
asS'MROA0'
p4880
(lp4881
S'SA1.WAV'
p4882
aS'SA2.WAV'
p4883
aS'SI1307.WAV'
p4884
aS'SI1970.WAV'
p4885
aS'SI677.WAV'
p4886
aS'SX137.WAV'
p4887
aS'SX227.WAV'
p4888
aS'SX317.WAV'
p4889
aS'SX407.WAV'
p4890
aS'SX47.WAV'
p4891
asS'MGAR0'
p4892
(lp4893
S'SA1.WAV'
p4894
aS'SA2.WAV'
p4895
aS'SI1212.WAV'
p4896
aS'SI1694.WAV'
p4897
aS'SI1842.WAV'
p4898
aS'SX132.WAV'
p4899
aS'SX222.WAV'
p4900
aS'SX312.WAV'
p4901
aS'SX402.WAV'
p4902
aS'SX42.WAV'
p4903
asS'MJRK0'
p4904
(lp4905
S'SA1.WAV'
p4906
aS'SA2.WAV'
p4907
aS'SI1662.WAV'
p4908
aS'SI2103.WAV'
p4909
aS'SI880.WAV'
p4910
aS'SX160.WAV'
p4911
aS'SX250.WAV'
p4912
aS'SX340.WAV'
p4913
aS'SX430.WAV'
p4914
aS'SX70.WAV'
p4915
asS'MDKS0'
p4916
(lp4917
S'SA1.WAV'
p4918
aS'SA2.WAV'
p4919
aS'SI1066.WAV'
p4920
aS'SI1696.WAV'
p4921
aS'SI2326.WAV'
p4922
aS'SX166.WAV'
p4923
aS'SX256.WAV'
p4924
aS'SX346.WAV'
p4925
aS'SX436.WAV'
p4926
aS'SX76.WAV'
p4927
asS'MWJG0'
p4928
(lp4929
S'SA1.WAV'
p4930
aS'SA2.WAV'
p4931
aS'SI1124.WAV'
p4932
aS'SI1754.WAV'
p4933
aS'SI494.WAV'
p4934
aS'SX134.WAV'
p4935
aS'SX224.WAV'
p4936
aS'SX314.WAV'
p4937
aS'SX404.WAV'
p4938
aS'SX44.WAV'
p4939
asS'MSAT1'
p4940
(lp4941
S'SA1.WAV'
p4942
aS'SA2.WAV'
p4943
aS'SI1073.WAV'
p4944
aS'SI1703.WAV'
p4945
aS'SI2333.WAV'
p4946
aS'SX173.WAV'
p4947
aS'SX263.WAV'
p4948
aS'SX353.WAV'
p4949
aS'SX443.WAV'
p4950
aS'SX83.WAV'
p4951
asS'MRJS0'
p4952
(lp4953
S'SA1.WAV'
p4954
aS'SA2.WAV'
p4955
aS'SI1444.WAV'
p4956
aS'SI1523.WAV'
p4957
aS'SI2074.WAV'
p4958
aS'SX184.WAV'
p4959
aS'SX274.WAV'
p4960
aS'SX364.WAV'
p4961
aS'SX4.WAV'
p4962
aS'SX94.WAV'
p4963
asS'MAJC0'
p4964
(lp4965
S'SA1.WAV'
p4966
aS'SA2.WAV'
p4967
aS'SI1946.WAV'
p4968
aS'SI2095.WAV'
p4969
aS'SI835.WAV'
p4970
aS'SX115.WAV'
p4971
aS'SX205.WAV'
p4972
aS'SX25.WAV'
p4973
aS'SX295.WAV'
p4974
aS'SX385.WAV'
p4975
asS'FBAS0'
p4976
(lp4977
S'SA1.WAV'
p4978
aS'SA2.WAV'
p4979
aS'SI1387.WAV'
p4980
aS'SI1472.WAV'
p4981
aS'SI2066.WAV'
p4982
aS'SX127.WAV'
p4983
aS'SX217.WAV'
p4984
aS'SX307.WAV'
p4985
aS'SX37.WAV'
p4986
aS'SX397.WAV'
p4987
asS'MTDT0'
p4988
(lp4989
S'SA1.WAV'
p4990
aS'SA2.WAV'
p4991
aS'SI1994.WAV'
p4992
aS'SI2254.WAV'
p4993
aS'SI994.WAV'
p4994
aS'SX184.WAV'
p4995
aS'SX274.WAV'
p4996
aS'SX364.WAV'
p4997
aS'SX4.WAV'
p4998
aS'SX94.WAV'
p4999
asS'MCDC0'
p5000
(lp5001
S'SA1.WAV'
p5002
aS'SA2.WAV'
p5003
aS'SI1292.WAV'
p5004
aS'SI1922.WAV'
p5005
aS'SI662.WAV'
p5006
aS'SX122.WAV'
p5007
aS'SX212.WAV'
p5008
aS'SX302.WAV'
p5009
aS'SX32.WAV'
p5010
aS'SX392.WAV'
p5011
asS'MAEO0'
p5012
(lp5013
S'SA1.WAV'
p5014
aS'SA2.WAV'
p5015
aS'SI1326.WAV'
p5016
aS'SI1655.WAV'
p5017
aS'SI1956.WAV'
p5018
aS'SX156.WAV'
p5019
aS'SX246.WAV'
p5020
aS'SX336.WAV'
p5021
aS'SX426.WAV'
p5022
aS'SX66.WAV'
p5023
asS'MLSH0'
p5024
(lp5025
S'SA1.WAV'
p5026
aS'SA2.WAV'
p5027
aS'SI1417.WAV'
p5028
aS'SI2047.WAV'
p5029
aS'SI787.WAV'
p5030
aS'SX157.WAV'
p5031
aS'SX247.WAV'
p5032
aS'SX337.WAV'
p5033
aS'SX427.WAV'
p5034
aS'SX67.WAV'
p5035
asS'FVMH0'
p5036
(lp5037
S'SA1.WAV'
p5038
aS'SA2.WAV'
p5039
aS'SI1466.WAV'
p5040
aS'SI2096.WAV'
p5041
aS'SI836.WAV'
p5042
aS'SX116.WAV'
p5043
aS'SX206.WAV'
p5044
aS'SX26.WAV'
p5045
aS'SX296.WAV'
p5046
aS'SX386.WAV'
p5047
asS'MMGK0'
p5048
(lp5049
S'SA1.WAV'
p5050
aS'SA2.WAV'
p5051
aS'SI1322.WAV'
p5052
aS'SI1952.WAV'
p5053
aS'SI692.WAV'
p5054
aS'SX152.WAV'
p5055
aS'SX242.WAV'
p5056
aS'SX332.WAV'
p5057
aS'SX422.WAV'
p5058
aS'SX62.WAV'
p5059
asS'MTAT1'
p5060
(lp5061
S'SA1.WAV'
p5062
aS'SA2.WAV'
p5063
aS'SI1409.WAV'
p5064
aS'SI1627.WAV'
p5065
aS'SI779.WAV'
p5066
aS'SX149.WAV'
p5067
aS'SX239.WAV'
p5068
aS'SX329.WAV'
p5069
aS'SX419.WAV'
p5070
aS'SX59.WAV'
p5071
asS'MTAT0'
p5072
(lp5073
S'SA1.WAV'
p5074
aS'SA2.WAV'
p5075
aS'SI1110.WAV'
p5076
aS'SI1740.WAV'
p5077
aS'SI811.WAV'
p5078
aS'SX120.WAV'
p5079
aS'SX210.WAV'
p5080
aS'SX30.WAV'
p5081
aS'SX300.WAV'
p5082
aS'SX390.WAV'
p5083
asS'MTRT0'
p5084
(lp5085
S'SA1.WAV'
p5086
aS'SA2.WAV'
p5087
aS'SI1227.WAV'
p5088
aS'SI1857.WAV'
p5089
aS'SI597.WAV'
p5090
aS'SX147.WAV'
p5091
aS'SX237.WAV'
p5092
aS'SX254.WAV'
p5093
aS'SX417.WAV'
p5094
aS'SX57.WAV'
p5095
asS'MDPS0'
p5096
(lp5097
S'SA1.WAV'
p5098
aS'SA2.WAV'
p5099
aS'SI1651.WAV'
p5100
aS'SI1979.WAV'
p5101
aS'SI719.WAV'
p5102
aS'SX179.WAV'
p5103
aS'SX269.WAV'
p5104
aS'SX359.WAV'
p5105
aS'SX449.WAV'
p5106
aS'SX89.WAV'
p5107
asS'MRLR0'
p5108
(lp5109
S'SA1.WAV'
p5110
aS'SA2.WAV'
p5111
aS'SI1196.WAV'
p5112
aS'SI1826.WAV'
p5113
aS'SI566.WAV'
p5114
aS'SX116.WAV'
p5115
aS'SX206.WAV'
p5116
aS'SX26.WAV'
p5117
aS'SX296.WAV'
p5118
aS'SX386.WAV'
p5119
asS'MRAB1'
p5120
(lp5121
S'SA1.WAV'
p5122
aS'SA2.WAV'
p5123
aS'SI1478.WAV'
p5124
aS'SI2108.WAV'
p5125
aS'SI848.WAV'
p5126
aS'SX128.WAV'
p5127
aS'SX218.WAV'
p5128
aS'SX308.WAV'
p5129
aS'SX38.WAV'
p5130
aS'SX398.WAV'
p5131
asS'MRAB0'
p5132
(lp5133
S'SA1.WAV'
p5134
aS'SA2.WAV'
p5135
aS'SI1224.WAV'
p5136
aS'SI1854.WAV'
p5137
aS'SI594.WAV'
p5138
aS'SX144.WAV'
p5139
aS'SX234.WAV'
p5140
aS'SX324.WAV'
p5141
aS'SX414.WAV'
p5142
aS'SX54.WAV'
p5143
asS'FMAH0'
p5144
(lp5145
S'SA1.WAV'
p5146
aS'SA2.WAV'
p5147
aS'SI1289.WAV'
p5148
aS'SI1919.WAV'
p5149
aS'SI659.WAV'
p5150
aS'SX119.WAV'
p5151
aS'SX209.WAV'
p5152
aS'SX29.WAV'
p5153
aS'SX299.WAV'
p5154
aS'SX389.WAV'
p5155
asS'MTDB0'
p5156
(lp5157
S'SA1.WAV'
p5158
aS'SA2.WAV'
p5159
aS'SI1401.WAV'
p5160
aS'SI2031.WAV'
p5161
aS'SI771.WAV'
p5162
aS'SX141.WAV'
p5163
aS'SX231.WAV'
p5164
aS'SX321.WAV'
p5165
aS'SX411.WAV'
p5166
aS'SX51.WAV'
p5167
asS'FGWR0'
p5168
(lp5169
S'SA1.WAV'
p5170
aS'SA2.WAV'
p5171
aS'SI1578.WAV'
p5172
aS'SI2208.WAV'
p5173
aS'SI948.WAV'
p5174
aS'SX138.WAV'
p5175
aS'SX228.WAV'
p5176
aS'SX318.WAV'
p5177
aS'SX408.WAV'
p5178
aS'SX48.WAV'
p5179
asS'FTBR0'
p5180
(lp5181
S'SA1.WAV'
p5182
aS'SA2.WAV'
p5183
aS'SI1402.WAV'
p5184
aS'SI2181.WAV'
p5185
aS'SI921.WAV'
p5186
aS'SX111.WAV'
p5187
aS'SX201.WAV'
p5188
aS'SX21.WAV'
p5189
aS'SX291.WAV'
p5190
aS'SX381.WAV'
p5191
asS'MWSB0'
p5192
(lp5193
S'SA1.WAV'
p5194
aS'SA2.WAV'
p5195
aS'SI1626.WAV'
p5196
aS'SI2256.WAV'
p5197
aS'SI996.WAV'
p5198
aS'SX186.WAV'
p5199
aS'SX276.WAV'
p5200
aS'SX366.WAV'
p5201
aS'SX6.WAV'
p5202
aS'SX96.WAV'
p5203
asS'MJWT0'
p5204
(lp5205
S'SA1.WAV'
p5206
aS'SA2.WAV'
p5207
aS'SI1291.WAV'
p5208
aS'SI1381.WAV'
p5209
aS'SI751.WAV'
p5210
aS'SX121.WAV'
p5211
aS'SX211.WAV'
p5212
aS'SX301.WAV'
p5213
aS'SX31.WAV'
p5214
aS'SX391.WAV'
p5215
asS'FLMK0'
p5216
(lp5217
S'SA1.WAV'
p5218
aS'SA2.WAV'
p5219
aS'SI1035.WAV'
p5220
aS'SI1229.WAV'
p5221
aS'SI2295.WAV'
p5222
aS'SX135.WAV'
p5223
aS'SX225.WAV'
p5224
aS'SX315.WAV'
p5225
aS'SX405.WAV'
p5226
aS'SX45.WAV'
p5227
asS'MABW0'
p5228
(lp5229
S'SA1.WAV'
p5230
aS'SA2.WAV'
p5231
aS'SI1230.WAV'
p5232
aS'SI1664.WAV'
p5233
aS'SI2294.WAV'
p5234
aS'SX134.WAV'
p5235
aS'SX224.WAV'
p5236
aS'SX314.WAV'
p5237
aS'SX404.WAV'
p5238
aS'SX44.WAV'
p5239
asS'MRES0'
p5240
(lp5241
S'SA1.WAV'
p5242
aS'SA2.WAV'
p5243
aS'SI1217.WAV'
p5244
aS'SI1847.WAV'
p5245
aS'SI587.WAV'
p5246
aS'SX137.WAV'
p5247
aS'SX227.WAV'
p5248
aS'SX317.WAV'
p5249
aS'SX407.WAV'
p5250
aS'SX47.WAV'
p5251
asS'MDWH0'
p5252
(lp5253
S'SA1.WAV'
p5254
aS'SA2.WAV'
p5255
aS'SI1168.WAV'
p5256
aS'SI1925.WAV'
p5257
aS'SI665.WAV'
p5258
aS'SX125.WAV'
p5259
aS'SX215.WAV'
p5260
aS'SX305.WAV'
p5261
aS'SX35.WAV'
p5262
aS'SX395.WAV'
p5263
asS'MMCC0'
p5264
(lp5265
S'SA1.WAV'
p5266
aS'SA2.WAV'
p5267
aS'SI1338.WAV'
p5268
aS'SI1968.WAV'
p5269
aS'SI708.WAV'
p5270
aS'SX168.WAV'
p5271
aS'SX258.WAV'
p5272
aS'SX348.WAV'
p5273
aS'SX438.WAV'
p5274
aS'SX78.WAV'
p5275
asS'MJBG0'
p5276
(lp5277
S'SA1.WAV'
p5278
aS'SA2.WAV'
p5279
aS'SI1232.WAV'
p5280
aS'SI1724.WAV'
p5281
aS'SI1862.WAV'
p5282
aS'SX152.WAV'
p5283
aS'SX242.WAV'
p5284
aS'SX332.WAV'
p5285
aS'SX422.WAV'
p5286
aS'SX62.WAV'
p5287
asS'MMJB1'
p5288
(lp5289
S'SA1.WAV'
p5290
aS'SA2.WAV'
p5291
aS'SI1408.WAV'
p5292
aS'SI2038.WAV'
p5293
aS'SI778.WAV'
p5294
aS'SX148.WAV'
p5295
aS'SX238.WAV'
p5296
aS'SX328.WAV'
p5297
aS'SX418.WAV'
p5298
aS'SX58.WAV'
p5299
asS'FLAS0'
p5300
(lp5301
S'SA1.WAV'
p5302
aS'SA2.WAV'
p5303
aS'SI1026.WAV'
p5304
aS'SI1488.WAV'
p5305
aS'SI858.WAV'
p5306
aS'SX138.WAV'
p5307
aS'SX228.WAV'
p5308
aS'SX318.WAV'
p5309
aS'SX408.WAV'
p5310
aS'SX48.WAV'
p5311
asS'FUTB0'
p5312
(lp5313
S'SA1.WAV'
p5314
aS'SA2.WAV'
p5315
aS'SI1204.WAV'
p5316
aS'SI1330.WAV'
p5317
aS'SI1834.WAV'
p5318
aS'SX124.WAV'
p5319
aS'SX214.WAV'
p5320
aS'SX304.WAV'
p5321
aS'SX34.WAV'
p5322
aS'SX394.WAV'
p5323
asS'FDAS1'
p5324
(lp5325
S'SA1.WAV'
p5326
aS'SA2.WAV'
p5327
aS'SI1461.WAV'
p5328
aS'SI2091.WAV'
p5329
aS'SI831.WAV'
p5330
aS'SX111.WAV'
p5331
aS'SX201.WAV'
p5332
aS'SX21.WAV'
p5333
aS'SX291.WAV'
p5334
aS'SX381.WAV'
p5335
asS'MCHL0'
p5336
(lp5337
S'SA1.WAV'
p5338
aS'SA2.WAV'
p5339
aS'SI1347.WAV'
p5340
aS'SI1404.WAV'
p5341
aS'SI1977.WAV'
p5342
aS'SX177.WAV'
p5343
aS'SX267.WAV'
p5344
aS'SX357.WAV'
p5345
aS'SX447.WAV'
p5346
aS'SX87.WAV'
p5347
asS'MBMA0'
p5348
(lp5349
S'SA1.WAV'
p5350
aS'SA2.WAV'
p5351
aS'SI1222.WAV'
p5352
aS'SI1852.WAV'
p5353
aS'SI592.WAV'
p5354
aS'SX142.WAV'
p5355
aS'SX232.WAV'
p5356
aS'SX322.WAV'
p5357
aS'SX412.WAV'
p5358
aS'SX52.WAV'
p5359
asS'MRLD0'
p5360
(lp5361
S'SA1.WAV'
p5362
aS'SA2.WAV'
p5363
aS'SI1594.WAV'
p5364
aS'SI2224.WAV'
p5365
aS'SI964.WAV'
p5366
aS'SX154.WAV'
p5367
aS'SX244.WAV'
p5368
aS'SX334.WAV'
p5369
aS'SX424.WAV'
p5370
aS'SX64.WAV'
p5371
asS'MDVC0'
p5372
(lp5373
S'SA1.WAV'
p5374
aS'SA2.WAV'
p5375
aS'SI2174.WAV'
p5376
aS'SI2196.WAV'
p5377
aS'SI936.WAV'
p5378
aS'SX126.WAV'
p5379
aS'SX216.WAV'
p5380
aS'SX306.WAV'
p5381
aS'SX36.WAV'
p5382
aS'SX396.WAV'
p5383
asS'MRJH0'
p5384
(lp5385
S'SA1.WAV'
p5386
aS'SA2.WAV'
p5387
aS'SI1519.WAV'
p5388
aS'SI889.WAV'
p5389
aS'SI914.WAV'
p5390
aS'SX169.WAV'
p5391
aS'SX259.WAV'
p5392
aS'SX307.WAV'
p5393
aS'SX439.WAV'
p5394
aS'SX79.WAV'
p5395
asS'MMEB0'
p5396
(lp5397
S'SA1.WAV'
p5398
aS'SA2.WAV'
p5399
aS'SI1357.WAV'
p5400
aS'SI1987.WAV'
p5401
aS'SI727.WAV'
p5402
aS'SX187.WAV'
p5403
aS'SX327.WAV'
p5404
aS'SX367.WAV'
p5405
aS'SX7.WAV'
p5406
aS'SX97.WAV'
p5407
asS'FJAS0'
p5408
(lp5409
S'SA1.WAV'
p5410
aS'SA2.WAV'
p5411
aS'SI1400.WAV'
p5412
aS'SI2030.WAV'
p5413
aS'SI770.WAV'
p5414
aS'SX140.WAV'
p5415
aS'SX230.WAV'
p5416
aS'SX320.WAV'
p5417
aS'SX410.WAV'
p5418
aS'SX50.WAV'
p5419
asS'MEJS0'
p5420
(lp5421
S'SA1.WAV'
p5422
aS'SA2.WAV'
p5423
aS'SI1240.WAV'
p5424
aS'SI1870.WAV'
p5425
aS'SI610.WAV'
p5426
aS'SX160.WAV'
p5427
aS'SX250.WAV'
p5428
aS'SX340.WAV'
p5429
aS'SX430.WAV'
p5430
aS'SX70.WAV'
p5431
asS'MMDB0'
p5432
(lp5433
S'SA1.WAV'
p5434
aS'SA2.WAV'
p5435
aS'SI1358.WAV'
p5436
aS'SI1617.WAV'
p5437
aS'SI987.WAV'
p5438
aS'SX177.WAV'
p5439
aS'SX267.WAV'
p5440
aS'SX357.WAV'
p5441
aS'SX447.WAV'
p5442
aS'SX87.WAV'
p5443
asS'MRDS0'
p5444
(lp5445
S'SA1.WAV'
p5446
aS'SA2.WAV'
p5447
aS'SI1167.WAV'
p5448
aS'SI1797.WAV'
p5449
aS'SI537.WAV'
p5450
aS'SX177.WAV'
p5451
aS'SX267.WAV'
p5452
aS'SX357.WAV'
p5453
aS'SX447.WAV'
p5454
aS'SX87.WAV'
p5455
asS'FJLM0'
p5456
(lp5457
S'SA1.WAV'
p5458
aS'SA2.WAV'
p5459
aS'SI1043.WAV'
p5460
aS'SI1673.WAV'
p5461
aS'SI2303.WAV'
p5462
aS'SX143.WAV'
p5463
aS'SX233.WAV'
p5464
aS'SX323.WAV'
p5465
aS'SX413.WAV'
p5466
aS'SX53.WAV'
p5467
asS'MWVW0'
p5468
(lp5469
S'SA1.WAV'
p5470
aS'SA2.WAV'
p5471
aS'SI1476.WAV'
p5472
aS'SI2106.WAV'
p5473
aS'SI846.WAV'
p5474
aS'SX126.WAV'
p5475
aS'SX216.WAV'
p5476
aS'SX306.WAV'
p5477
aS'SX36.WAV'
p5478
aS'SX396.WAV'
p5479
asS'MILB0'
p5480
(lp5481
S'SA1.WAV'
p5482
aS'SA2.WAV'
p5483
aS'SI2163.WAV'
p5484
aS'SI807.WAV'
p5485
aS'SI903.WAV'
p5486
aS'SX183.WAV'
p5487
aS'SX273.WAV'
p5488
aS'SX3.WAV'
p5489
aS'SX363.WAV'
p5490
aS'SX93.WAV'
p5491
asS'MFRM0'
p5492
(lp5493
S'SA1.WAV'
p5494
aS'SA2.WAV'
p5495
aS'SI1155.WAV'
p5496
aS'SI1717.WAV'
p5497
aS'SI1785.WAV'
p5498
aS'SX165.WAV'
p5499
aS'SX255.WAV'
p5500
aS'SX345.WAV'
p5501
aS'SX435.WAV'
p5502
aS'SX75.WAV'
p5503
asS'MKDT0'
p5504
(lp5505
S'SA1.WAV'
p5506
aS'SA2.WAV'
p5507
aS'SI2153.WAV'
p5508
aS'SI814.WAV'
p5509
aS'SI893.WAV'
p5510
aS'SX173.WAV'
p5511
aS'SX263.WAV'
p5512
aS'SX353.WAV'
p5513
aS'SX443.WAV'
p5514
aS'SX83.WAV'
p5515
asS'FJDM2'
p5516
(lp5517
S'SA1.WAV'
p5518
aS'SA2.WAV'
p5519
aS'SI1582.WAV'
p5520
aS'SI1964.WAV'
p5521
aS'SI2212.WAV'
p5522
aS'SX142.WAV'
p5523
aS'SX232.WAV'
p5524
aS'SX322.WAV'
p5525
aS'SX412.WAV'
p5526
aS'SX52.WAV'
p5527
asS'MPMB0'
p5528
(lp5529
S'SA1.WAV'
p5530
aS'SA2.WAV'
p5531
aS'SI1501.WAV'
p5532
aS'SI2131.WAV'
p5533
aS'SI871.WAV'
p5534
aS'SX151.WAV'
p5535
aS'SX241.WAV'
p5536
aS'SX331.WAV'
p5537
aS'SX421.WAV'
p5538
aS'SX61.WAV'
p5539
asS'MJRG0'
p5540
(lp5541
S'SA1.WAV'
p5542
aS'SA2.WAV'
p5543
aS'SI1366.WAV'
p5544
aS'SI1996.WAV'
p5545
aS'SI736.WAV'
p5546
aS'SX106.WAV'
p5547
aS'SX16.WAV'
p5548
aS'SX286.WAV'
p5549
aS'SX352.WAV'
p5550
aS'SX376.WAV'
p5551
asS'FSRH0'
p5552
(lp5553
S'SA1.WAV'
p5554
aS'SA2.WAV'
p5555
aS'SI1719.WAV'
p5556
aS'SI1931.WAV'
p5557
aS'SI671.WAV'
p5558
aS'SX131.WAV'
p5559
aS'SX221.WAV'
p5560
aS'SX311.WAV'
p5561
aS'SX401.WAV'
p5562
aS'SX41.WAV'
p5563
asS'MRJO0'
p5564
(lp5565
S'SA1.WAV'
p5566
aS'SA2.WAV'
p5567
aS'SI1364.WAV'
p5568
aS'SI1624.WAV'
p5569
aS'SI734.WAV'
p5570
aS'SX104.WAV'
p5571
aS'SX14.WAV'
p5572
aS'SX194.WAV'
p5573
aS'SX284.WAV'
p5574
aS'SX374.WAV'
p5575
asS'FSGF0'
p5576
(lp5577
S'SA1.WAV'
p5578
aS'SA2.WAV'
p5579
aS'SI1557.WAV'
p5580
aS'SI2187.WAV'
p5581
aS'SI927.WAV'
p5582
aS'SX117.WAV'
p5583
aS'SX207.WAV'
p5584
aS'SX27.WAV'
p5585
aS'SX297.WAV'
p5586
aS'SX387.WAV'
p5587
asS'FEAR0'
p5588
(lp5589
S'SA1.WAV'
p5590
aS'SA2.WAV'
p5591
aS'SI1252.WAV'
p5592
aS'SI1882.WAV'
p5593
aS'SI622.WAV'
p5594
aS'SX172.WAV'
p5595
aS'SX262.WAV'
p5596
aS'SX352.WAV'
p5597
aS'SX442.WAV'
p5598
aS'SX82.WAV'
p5599
asS'MBOM0'
p5600
(lp5601
S'SA1.WAV'
p5602
aS'SA2.WAV'
p5603
aS'SI1014.WAV'
p5604
aS'SI1644.WAV'
p5605
aS'SI2274.WAV'
p5606
aS'SX114.WAV'
p5607
aS'SX204.WAV'
p5608
aS'SX294.WAV'
p5609
aS'SX311.WAV'
p5610
aS'SX384.WAV'
p5611
asS'FNTB0'
p5612
(lp5613
S'SA1.WAV'
p5614
aS'SA2.WAV'
p5615
aS'SI1203.WAV'
p5616
aS'SI573.WAV'
p5617
aS'SI679.WAV'
p5618
aS'SX123.WAV'
p5619
aS'SX213.WAV'
p5620
aS'SX303.WAV'
p5621
aS'SX33.WAV'
p5622
aS'SX393.WAV'
p5623
asS'MTCS0'
p5624
(lp5625
S'SA1.WAV'
p5626
aS'SA2.WAV'
p5627
aS'SI1972.WAV'
p5628
aS'SI2265.WAV'
p5629
aS'SI712.WAV'
p5630
aS'SX172.WAV'
p5631
aS'SX262.WAV'
p5632
aS'SX352.WAV'
p5633
aS'SX442.WAV'
p5634
aS'SX82.WAV'
p5635
asS'FMBG0'
p5636
(lp5637
S'SA1.WAV'
p5638
aS'SA2.WAV'
p5639
aS'SI1160.WAV'
p5640
aS'SI1790.WAV'
p5641
aS'SI2264.WAV'
p5642
aS'SX260.WAV'
p5643
aS'SX3.WAV'
p5644
aS'SX350.WAV'
p5645
aS'SX440.WAV'
p5646
aS'SX80.WAV'
p5647
asS'MNET0'
p5648
(lp5649
S'SA1.WAV'
p5650
aS'SA2.WAV'
p5651
aS'SI1446.WAV'
p5652
aS'SI2076.WAV'
p5653
aS'SI816.WAV'
p5654
aS'SX186.WAV'
p5655
aS'SX276.WAV'
p5656
aS'SX366.WAV'
p5657
aS'SX6.WAV'
p5658
aS'SX96.WAV'
p5659
asS'MDRM0'
p5660
(lp5661
S'SA1.WAV'
p5662
aS'SA2.WAV'
p5663
aS'SI1013.WAV'
p5664
aS'SI1643.WAV'
p5665
aS'SI2273.WAV'
p5666
aS'SX113.WAV'
p5667
aS'SX203.WAV'
p5668
aS'SX23.WAV'
p5669
aS'SX293.WAV'
p5670
aS'SX383.WAV'
p5671
asS'MGJC0'
p5672
(lp5673
S'SA1.WAV'
p5674
aS'SA2.WAV'
p5675
aS'SI1256.WAV'
p5676
aS'SI1335.WAV'
p5677
aS'SI1965.WAV'
p5678
aS'SX165.WAV'
p5679
aS'SX255.WAV'
p5680
aS'SX345.WAV'
p5681
aS'SX435.WAV'
p5682
aS'SX75.WAV'
p5683
asS'MMSM0'
p5684
(lp5685
S'SA1.WAV'
p5686
aS'SA2.WAV'
p5687
aS'SI1106.WAV'
p5688
aS'SI1736.WAV'
p5689
aS'SI476.WAV'
p5690
aS'SX116.WAV'
p5691
aS'SX206.WAV'
p5692
aS'SX26.WAV'
p5693
aS'SX296.WAV'
p5694
aS'SX386.WAV'
p5695
asS'FCLT0'
p5696
(lp5697
S'SA1.WAV'
p5698
aS'SA2.WAV'
p5699
aS'SI1438.WAV'
p5700
aS'SI2068.WAV'
p5701
aS'SI808.WAV'
p5702
aS'SX178.WAV'
p5703
aS'SX268.WAV'
p5704
aS'SX358.WAV'
p5705
aS'SX448.WAV'
p5706
aS'SX88.WAV'
p5707
asS'FPAZ0'
p5708
(lp5709
S'SA1.WAV'
p5710
aS'SA2.WAV'
p5711
aS'SI1593.WAV'
p5712
aS'SI2223.WAV'
p5713
aS'SI963.WAV'
p5714
aS'SX153.WAV'
p5715
aS'SX243.WAV'
p5716
aS'SX27.WAV'
p5717
aS'SX423.WAV'
p5718
aS'SX63.WAV'
p5719
asS'MCHH0'
p5720
(lp5721
S'SA1.WAV'
p5722
aS'SA2.WAV'
p5723
aS'SI1004.WAV'
p5724
aS'SI1634.WAV'
p5725
aS'SI530.WAV'
p5726
aS'SX104.WAV'
p5727
aS'SX14.WAV'
p5728
aS'SX194.WAV'
p5729
aS'SX284.WAV'
p5730
aS'SX374.WAV'
p5731
asS'MDCD0'
p5732
(lp5733
S'SA1.WAV'
p5734
aS'SA2.WAV'
p5735
aS'SI1415.WAV'
p5736
aS'SI2045.WAV'
p5737
aS'SI785.WAV'
p5738
aS'SX155.WAV'
p5739
aS'SX245.WAV'
p5740
aS'SX335.WAV'
p5741
aS'SX425.WAV'
p5742
aS'SX65.WAV'
p5743
asS'FREH0'
p5744
(lp5745
S'SA1.WAV'
p5746
aS'SA2.WAV'
p5747
aS'SI1315.WAV'
p5748
aS'SI1945.WAV'
p5749
aS'SI685.WAV'
p5750
aS'SX145.WAV'
p5751
aS'SX235.WAV'
p5752
aS'SX325.WAV'
p5753
aS'SX415.WAV'
p5754
aS'SX55.WAV'
p5755
asS'MJPM1'
p5756
(lp5757
S'SA1.WAV'
p5758
aS'SA2.WAV'
p5759
aS'SI1897.WAV'
p5760
aS'SI2280.WAV'
p5761
aS'SI761.WAV'
p5762
aS'SX131.WAV'
p5763
aS'SX221.WAV'
p5764
aS'SX311.WAV'
p5765
aS'SX401.WAV'
p5766
aS'SX41.WAV'
p5767
asS'FBCG1'
p5768
(lp5769
S'SA1.WAV'
p5770
aS'SA2.WAV'
p5771
aS'SI1612.WAV'
p5772
aS'SI2242.WAV'
p5773
aS'SI982.WAV'
p5774
aS'SX172.WAV'
p5775
aS'SX262.WAV'
p5776
aS'SX352.WAV'
p5777
aS'SX442.WAV'
p5778
aS'SX82.WAV'
p5779
asS'MDMT0'
p5780
(lp5781
S'SA1.WAV'
p5782
aS'SA2.WAV'
p5783
aS'SI1832.WAV'
p5784
aS'SI2341.WAV'
p5785
aS'SI572.WAV'
p5786
aS'SX122.WAV'
p5787
aS'SX212.WAV'
p5788
aS'SX302.WAV'
p5789
aS'SX32.WAV'
p5790
aS'SX392.WAV'
p5791
asS'FPAC0'
p5792
(lp5793
S'SA1.WAV'
p5794
aS'SA2.WAV'
p5795
aS'SI1921.WAV'
p5796
aS'SI2011.WAV'
p5797
aS'SI661.WAV'
p5798
aS'SX121.WAV'
p5799
aS'SX211.WAV'
p5800
aS'SX301.WAV'
p5801
aS'SX31.WAV'
p5802
aS'SX391.WAV'
p5803
asS'MJLN0'
p5804
(lp5805
S'SA1.WAV'
p5806
aS'SA2.WAV'
p5807
aS'SI1449.WAV'
p5808
aS'SI2079.WAV'
p5809
aS'SI819.WAV'
p5810
aS'SX189.WAV'
p5811
aS'SX279.WAV'
p5812
aS'SX369.WAV'
p5813
aS'SX9.WAV'
p5814
aS'SX99.WAV'
p5815
asS'FCAL1'
p5816
(lp5817
S'SA1.WAV'
p5818
aS'SA2.WAV'
p5819
aS'SI1403.WAV'
p5820
aS'SI2033.WAV'
p5821
aS'SI773.WAV'
p5822
aS'SX143.WAV'
p5823
aS'SX233.WAV'
p5824
aS'SX323.WAV'
p5825
aS'SX413.WAV'
p5826
aS'SX53.WAV'
p5827
asS'MWRE0'
p5828
(lp5829
S'SA1.WAV'
p5830
aS'SA2.WAV'
p5831
aS'SI1057.WAV'
p5832
aS'SI1687.WAV'
p5833
aS'SI2317.WAV'
p5834
aS'SX157.WAV'
p5835
aS'SX247.WAV'
p5836
aS'SX337.WAV'
p5837
aS'SX427.WAV'
p5838
aS'SX67.WAV'
p5839
asS'MESG0'
p5840
(lp5841
S'SA1.WAV'
p5842
aS'SA2.WAV'
p5843
aS'SI1332.WAV'
p5844
aS'SI1962.WAV'
p5845
aS'SI702.WAV'
p5846
aS'SX162.WAV'
p5847
aS'SX252.WAV'
p5848
aS'SX342.WAV'
p5849
aS'SX432.WAV'
p5850
aS'SX72.WAV'
p5851
asS'MAEB0'
p5852
(lp5853
S'SA1.WAV'
p5854
aS'SA2.WAV'
p5855
aS'SI1411.WAV'
p5856
aS'SI2250.WAV'
p5857
aS'SI990.WAV'
p5858
aS'SX180.WAV'
p5859
aS'SX270.WAV'
p5860
aS'SX360.WAV'
p5861
aS'SX450.WAV'
p5862
aS'SX90.WAV'
p5863
asS'MCXM0'
p5864
(lp5865
S'SA1.WAV'
p5866
aS'SA2.WAV'
p5867
aS'SI1351.WAV'
p5868
aS'SI1981.WAV'
p5869
aS'SI721.WAV'
p5870
aS'SX181.WAV'
p5871
aS'SX271.WAV'
p5872
aS'SX361.WAV'
p5873
aS'SX451.WAV'
p5874
aS'SX91.WAV'
p5875
asS'MJMM0'
p5876
(lp5877
S'SA1.WAV'
p5878
aS'SA2.WAV'
p5879
aS'SI1255.WAV'
p5880
aS'SI1885.WAV'
p5881
aS'SI625.WAV'
p5882
aS'SX175.WAV'
p5883
aS'SX265.WAV'
p5884
aS'SX355.WAV'
p5885
aS'SX445.WAV'
p5886
aS'SX85.WAV'
p5887
asS'FRLL0'
p5888
(lp5889
S'SA1.WAV'
p5890
aS'SA2.WAV'
p5891
aS'SI1514.WAV'
p5892
aS'SI805.WAV'
p5893
aS'SI884.WAV'
p5894
aS'SX164.WAV'
p5895
aS'SX254.WAV'
p5896
aS'SX344.WAV'
p5897
aS'SX434.WAV'
p5898
aS'SX74.WAV'
p5899
asS'MMXS0'
p5900
(lp5901
S'SA1.WAV'
p5902
aS'SA2.WAV'
p5903
aS'SI2136.WAV'
p5904
aS'SI629.WAV'
p5905
aS'SI876.WAV'
p5906
aS'SX156.WAV'
p5907
aS'SX246.WAV'
p5908
aS'SX336.WAV'
p5909
aS'SX426.WAV'
p5910
aS'SX66.WAV'
p5911
asS'MMLM0'
p5912
(lp5913
S'SA1.WAV'
p5914
aS'SA2.WAV'
p5915
aS'SI1527.WAV'
p5916
aS'SI2150.WAV'
p5917
aS'SI897.WAV'
p5918
aS'SX177.WAV'
p5919
aS'SX267.WAV'
p5920
aS'SX357.WAV'
p5921
aS'SX447.WAV'
p5922
aS'SX87.WAV'
p5923
asS'MSRG0'
p5924
(lp5925
S'SA1.WAV'
p5926
aS'SA2.WAV'
p5927
aS'SI1221.WAV'
p5928
aS'SI1851.WAV'
p5929
aS'SI591.WAV'
p5930
aS'SX141.WAV'
p5931
aS'SX231.WAV'
p5932
aS'SX321.WAV'
p5933
aS'SX411.WAV'
p5934
aS'SX51.WAV'
p5935
asS'MTER0'
p5936
(lp5937
S'SA1.WAV'
p5938
aS'SA2.WAV'
p5939
aS'SI1157.WAV'
p5940
aS'SI1787.WAV'
p5941
aS'SI527.WAV'
p5942
aS'SX167.WAV'
p5943
aS'SX17.WAV'
p5944
aS'SX257.WAV'
p5945
aS'SX437.WAV'
p5946
aS'SX77.WAV'
p5947
asS'FLNH0'
p5948
(lp5949
S'SA1.WAV'
p5950
aS'SA2.WAV'
p5951
aS'SI1214.WAV'
p5952
aS'SI584.WAV'
p5953
aS'SI941.WAV'
p5954
aS'SX134.WAV'
p5955
aS'SX224.WAV'
p5956
aS'SX314.WAV'
p5957
aS'SX404.WAV'
p5958
aS'SX44.WAV'
p5959
asS'MDRD0'
p5960
(lp5961
S'SA1.WAV'
p5962
aS'SA2.WAV'
p5963
aS'SI1382.WAV'
p5964
aS'SI2012.WAV'
p5965
aS'SI752.WAV'
p5966
aS'SX122.WAV'
p5967
aS'SX212.WAV'
p5968
aS'SX302.WAV'
p5969
aS'SX32.WAV'
p5970
aS'SX392.WAV'
p5971
asS'MDCM0'
p5972
(lp5973
S'SA1.WAV'
p5974
aS'SA2.WAV'
p5975
aS'SI1480.WAV'
p5976
aS'SI2110.WAV'
p5977
aS'SI850.WAV'
p5978
aS'SX130.WAV'
p5979
aS'SX220.WAV'
p5980
aS'SX310.WAV'
p5981
aS'SX40.WAV'
p5982
aS'SX400.WAV'
p5983
asS'FDAW0'
p5984
(lp5985
S'SA1.WAV'
p5986
aS'SA2.WAV'
p5987
aS'SI1271.WAV'
p5988
aS'SI1406.WAV'
p5989
aS'SI2036.WAV'
p5990
aS'SX146.WAV'
p5991
aS'SX236.WAV'
p5992
aS'SX326.WAV'
p5993
aS'SX416.WAV'
p5994
aS'SX56.WAV'
p5995
asS'MDLC0'
p5996
(lp5997
S'SA1.WAV'
p5998
aS'SA2.WAV'
p5999
aS'SI1395.WAV'
p6000
aS'SI2025.WAV'
p6001
aS'SI765.WAV'
p6002
aS'SX135.WAV'
p6003
aS'SX225.WAV'
p6004
aS'SX315.WAV'
p6005
aS'SX405.WAV'
p6006
aS'SX45.WAV'
p6007
asS'MDLC2'
p6008
(lp6009
S'SA1.WAV'
p6010
aS'SA2.WAV'
p6011
aS'SI1614.WAV'
p6012
aS'SI2244.WAV'
p6013
aS'SI984.WAV'
p6014
aS'SX174.WAV'
p6015
aS'SX264.WAV'
p6016
aS'SX354.WAV'
p6017
aS'SX444.WAV'
p6018
aS'SX84.WAV'
p6019
asS'FDMY0'
p6020
(lp6021
S'SA1.WAV'
p6022
aS'SA2.WAV'
p6023
aS'SI1197.WAV'
p6024
aS'SI567.WAV'
p6025
aS'SI714.WAV'
p6026
aS'SX117.WAV'
p6027
aS'SX207.WAV'
p6028
aS'SX27.WAV'
p6029
aS'SX297.WAV'
p6030
aS'SX387.WAV'
p6031
asS'FJKL0'
p6032
(lp6033
S'SA1.WAV'
p6034
aS'SA2.WAV'
p6035
aS'SI1562.WAV'
p6036
aS'SI2192.WAV'
p6037
aS'SI932.WAV'
p6038
aS'SX122.WAV'
p6039
aS'SX212.WAV'
p6040
aS'SX302.WAV'
p6041
aS'SX32.WAV'
p6042
aS'SX392.WAV'
p6043
asS'MJMD0'
p6044
(lp6045
S'SA1.WAV'
p6046
aS'SA2.WAV'
p6047
aS'SI1028.WAV'
p6048
aS'SI1658.WAV'
p6049
aS'SI2288.WAV'
p6050
aS'SX128.WAV'
p6051
aS'SX218.WAV'
p6052
aS'SX308.WAV'
p6053
aS'SX38.WAV'
p6054
aS'SX398.WAV'
p6055
assS'file_ext'
p6056
S'.WAV'
p6057
sS'wav_rootpath'
p6058
S'/media/mateusz/Data/Magisterka/Datasets/TIMIT/Raw'
p6059
sS'adaptation'
p6060
(dp6061
S'MCTT0'
p6062
(lp6063
S'SA2.WAV'
p6064
aS'SX28.WAV'
p6065
aS'SX208.WAV'
p6066
aS'SX388.WAV'
p6067
aS'SI1144.WAV'
p6068
aS'SX118.WAV'
p6069
aS'SI928.WAV'
p6070
aS'SI2188.WAV'
p6071
aS'SA1.WAV'
p6072
asS'MRPP0'
p6073
(lp6074
S'SA2.WAV'
p6075
aS'SX194.WAV'
p6076
aS'SX14.WAV'
p6077
aS'SX374.WAV'
p6078
aS'SI1184.WAV'
p6079
aS'SX104.WAV'
p6080
aS'SI554.WAV'
p6081
aS'SI1814.WAV'
p6082
aS'SA1.WAV'
p6083
asS'FPAD0'
p6084
(lp6085
S'SA2.WAV'
p6086
aS'SX356.WAV'
p6087
aS'SX266.WAV'
p6088
aS'SX86.WAV'
p6089
aS'SI1346.WAV'
p6090
aS'SX176.WAV'
p6091
aS'SI716.WAV'
p6092
aS'SI1976.WAV'
p6093
aS'SA1.WAV'
p6094
asS'MARW0'
p6095
(lp6096
S'SA2.WAV'
p6097
aS'SX286.WAV'
p6098
aS'SX16.WAV'
p6099
aS'SX376.WAV'
p6100
aS'SI1276.WAV'
p6101
aS'SX106.WAV'
p6102
aS'SI646.WAV'
p6103
aS'SI1906.WAV'
p6104
aS'SA1.WAV'
p6105
asS'MADC0'
p6106
(lp6107
S'SA2.WAV'
p6108
aS'SX197.WAV'
p6109
aS'SX17.WAV'
p6110
aS'SX377.WAV'
p6111
aS'SI1367.WAV'
p6112
aS'SX107.WAV'
p6113
aS'SI737.WAV'
p6114
aS'SI1997.WAV'
p6115
aS'SA1.WAV'
p6116
asS'MAKR0'
p6117
(lp6118
S'SA2.WAV'
p6119
aS'SX362.WAV'
p6120
aS'SX272.WAV'
p6121
aS'SX92.WAV'
p6122
aS'SI1352.WAV'
p6123
aS'SX182.WAV'
p6124
aS'SI722.WAV'
p6125
aS'SI1982.WAV'
p6126
aS'SA1.WAV'
p6127
asS'FEME0'
p6128
(lp6129
S'SA2.WAV'
p6130
aS'SX335.WAV'
p6131
aS'SX245.WAV'
p6132
aS'SX65.WAV'
p6133
aS'SI1505.WAV'
p6134
aS'SX155.WAV'
p6135
aS'SI875.WAV'
p6136
aS'SI2135.WAV'
p6137
aS'SA1.WAV'
p6138
asS'MSMC0'
p6139
(lp6140
S'SA2.WAV'
p6141
aS'SX197.WAV'
p6142
aS'SX17.WAV'
p6143
aS'SX377.WAV'
p6144
aS'SI1907.WAV'
p6145
aS'SX107.WAV'
p6146
aS'SI647.WAV'
p6147
aS'SI509.WAV'
p6148
aS'SA1.WAV'
p6149
asS'MGLB0'
p6150
(lp6151
S'SA2.WAV'
p6152
aS'SX364.WAV'
p6153
aS'SX274.WAV'
p6154
aS'SX94.WAV'
p6155
aS'SI1534.WAV'
p6156
aS'SX184.WAV'
p6157
aS'SI904.WAV'
p6158
aS'SI2164.WAV'
p6159
aS'SA1.WAV'
p6160
asS'MDLB0'
p6161
(lp6162
S'SA2.WAV'
p6163
aS'SX316.WAV'
p6164
aS'SX226.WAV'
p6165
aS'SX46.WAV'
p6166
aS'SI1306.WAV'
p6167
aS'SX136.WAV'
p6168
aS'SI676.WAV'
p6169
aS'SI1936.WAV'
p6170
aS'SA1.WAV'
p6171
asS'FLAG0'
p6172
(lp6173
S'SA2.WAV'
p6174
aS'SX24.WAV'
p6175
aS'SX204.WAV'
p6176
aS'SX384.WAV'
p6177
aS'SI1464.WAV'
p6178
aS'SX114.WAV'
p6179
aS'SI834.WAV'
p6180
aS'SI2094.WAV'
p6181
aS'SA1.WAV'
p6182
asS'MRWA0'
p6183
(lp6184
S'SA2.WAV'
p6185
aS'SX343.WAV'
p6186
aS'SX253.WAV'
p6187
aS'SX73.WAV'
p6188
aS'SI1603.WAV'
p6189
aS'SX163.WAV'
p6190
aS'SI973.WAV'
p6191
aS'SI2233.WAV'
p6192
aS'SA1.WAV'
p6193
asS'FDNC0'
p6194
(lp6195
S'SA2.WAV'
p6196
aS'SX198.WAV'
p6197
aS'SX18.WAV'
p6198
aS'SX378.WAV'
p6199
aS'SI1278.WAV'
p6200
aS'SX108.WAV'
p6201
aS'SI2287.WAV'
p6202
aS'SI1908.WAV'
p6203
aS'SA1.WAV'
p6204
asS'MJAC0'
p6205
(lp6206
S'SA2.WAV'
p6207
aS'SX341.WAV'
p6208
aS'SX307.WAV'
p6209
aS'SX71.WAV'
p6210
aS'SI1331.WAV'
p6211
aS'SX251.WAV'
p6212
aS'SI701.WAV'
p6213
aS'SI2148.WAV'
p6214
aS'SA1.WAV'
p6215
asS'MTKP0'
p6216
(lp6217
S'SA2.WAV'
p6218
aS'SX303.WAV'
p6219
aS'SX213.WAV'
p6220
aS'SX393.WAV'
p6221
aS'SI1023.WAV'
p6222
aS'SX123.WAV'
p6223
aS'SI454.WAV'
p6224
aS'SI2283.WAV'
p6225
aS'SA1.WAV'
p6226
asS'MMWS0'
p6227
(lp6228
S'SA2.WAV'
p6229
aS'SX348.WAV'
p6230
aS'SX258.WAV'
p6231
aS'SX78.WAV'
p6232
aS'SI1518.WAV'
p6233
aS'SX168.WAV'
p6234
aS'SI888.WAV'
p6235
aS'SI559.WAV'
p6236
aS'SA1.WAV'
p6237
asS'MTWH1'
p6238
(lp6239
S'SA2.WAV'
p6240
aS'SX342.WAV'
p6241
aS'SX252.WAV'
p6242
aS'SX72.WAV'
p6243
aS'SI1512.WAV'
p6244
aS'SX162.WAV'
p6245
aS'SI882.WAV'
p6246
aS'SI2142.WAV'
p6247
aS'SA1.WAV'
p6248
asS'FBJL0'
p6249
(lp6250
S'SA2.WAV'
p6251
aS'SX22.WAV'
p6252
aS'SX202.WAV'
p6253
aS'SX382.WAV'
p6254
aS'SI1552.WAV'
p6255
aS'SX112.WAV'
p6256
aS'SI922.WAV'
p6257
aS'SI2182.WAV'
p6258
aS'SA1.WAV'
p6259
asS'FCFT0'
p6260
(lp6261
S'SA2.WAV'
p6262
aS'SX368.WAV'
p6263
aS'SX278.WAV'
p6264
aS'SX98.WAV'
p6265
aS'SI1178.WAV'
p6266
aS'SX188.WAV'
p6267
aS'SI548.WAV'
p6268
aS'SI1808.WAV'
p6269
aS'SA1.WAV'
p6270
asS'MKJO0'
p6271
(lp6272
S'SA2.WAV'
p6273
aS'SX424.WAV'
p6274
aS'SX257.WAV'
p6275
aS'SX77.WAV'
p6276
aS'SI1517.WAV'
p6277
aS'SX167.WAV'
p6278
aS'SI887.WAV'
p6279
aS'SI2147.WAV'
p6280
aS'SA1.WAV'
p6281
asS'MBWP0'
p6282
(lp6283
S'SA2.WAV'
p6284
aS'SX349.WAV'
p6285
aS'SX259.WAV'
p6286
aS'SX79.WAV'
p6287
aS'SI1531.WAV'
p6288
aS'SX169.WAV'
p6289
aS'SI709.WAV'
p6290
aS'SI1969.WAV'
p6291
aS'SA1.WAV'
p6292
asS'MRCZ0'
p6293
(lp6294
S'SA2.WAV'
p6295
aS'SX191.WAV'
p6296
aS'SX11.WAV'
p6297
aS'SX371.WAV'
p6298
aS'SI1541.WAV'
p6299
aS'SX101.WAV'
p6300
aS'SI911.WAV'
p6301
aS'SI2171.WAV'
p6302
aS'SA1.WAV'
p6303
asS'MMPM0'
p6304
(lp6305
S'SA2.WAV'
p6306
aS'SX341.WAV'
p6307
aS'SX251.WAV'
p6308
aS'SX71.WAV'
p6309
aS'SI1061.WAV'
p6310
aS'SX161.WAV'
p6311
aS'SI2321.WAV'
p6312
aS'SI1691.WAV'
p6313
aS'SA1.WAV'
p6314
asS'FTLG0'
p6315
(lp6316
S'SA2.WAV'
p6317
aS'SX303.WAV'
p6318
aS'SX213.WAV'
p6319
aS'SX393.WAV'
p6320
aS'SI1743.WAV'
p6321
aS'SX123.WAV'
p6322
aS'SI840.WAV'
p6323
aS'SI483.WAV'
p6324
aS'SA1.WAV'
p6325
asS'MTAS0'
p6326
(lp6327
S'SA2.WAV'
p6328
aS'SX305.WAV'
p6329
aS'SX215.WAV'
p6330
aS'SX395.WAV'
p6331
aS'SI1385.WAV'
p6332
aS'SX125.WAV'
p6333
aS'SI755.WAV'
p6334
aS'SI2015.WAV'
p6335
aS'SA1.WAV'
p6336
asS'MMEA0'
p6337
(lp6338
S'SA2.WAV'
p6339
aS'SX308.WAV'
p6340
aS'SX218.WAV'
p6341
aS'SX398.WAV'
p6342
aS'SI1388.WAV'
p6343
aS'SX128.WAV'
p6344
aS'SI758.WAV'
p6345
aS'SI2018.WAV'
p6346
aS'SA1.WAV'
p6347
asS'FSEM0'
p6348
(lp6349
S'SA2.WAV'
p6350
aS'SX28.WAV'
p6351
aS'SX208.WAV'
p6352
aS'SX388.WAV'
p6353
aS'SI1198.WAV'
p6354
aS'SX118.WAV'
p6355
aS'SI568.WAV'
p6356
aS'SI1828.WAV'
p6357
aS'SA1.WAV'
p6358
asS'FJRP1'
p6359
(lp6360
S'SA2.WAV'
p6361
aS'SX352.WAV'
p6362
aS'SX262.WAV'
p6363
aS'SX82.WAV'
p6364
aS'SI1432.WAV'
p6365
aS'SX172.WAV'
p6366
aS'SI802.WAV'
p6367
aS'SI2062.WAV'
p6368
aS'SA1.WAV'
p6369
asS'MRXB0'
p6370
(lp6371
S'SA2.WAV'
p6372
aS'SX325.WAV'
p6373
aS'SX235.WAV'
p6374
aS'SX55.WAV'
p6375
aS'SI1585.WAV'
p6376
aS'SX145.WAV'
p6377
aS'SI955.WAV'
p6378
aS'SI2215.WAV'
p6379
aS'SA1.WAV'
p6380
asS'FCJF0'
p6381
(lp6382
S'SA2.WAV'
p6383
aS'SX307.WAV'
p6384
aS'SX217.WAV'
p6385
aS'SX397.WAV'
p6386
aS'SI1027.WAV'
p6387
aS'SX127.WAV'
p6388
aS'SI648.WAV'
p6389
aS'SI1657.WAV'
p6390
aS'SA1.WAV'
p6391
asS'MPRK0'
p6392
(lp6393
S'SA2.WAV'
p6394
aS'SX197.WAV'
p6395
aS'SX17.WAV'
p6396
aS'SX377.WAV'
p6397
aS'SI1097.WAV'
p6398
aS'SX107.WAV'
p6399
aS'SI467.WAV'
p6400
aS'SI1727.WAV'
p6401
aS'SA1.WAV'
p6402
asS'MHMR0'
p6403
(lp6404
S'SA2.WAV'
p6405
aS'SX309.WAV'
p6406
aS'SX219.WAV'
p6407
aS'SX399.WAV'
p6408
aS'SI1119.WAV'
p6409
aS'SX129.WAV'
p6410
aS'SI489.WAV'
p6411
aS'SI1692.WAV'
p6412
aS'SA1.WAV'
p6413
asS'FGRW0'
p6414
(lp6415
S'SA2.WAV'
p6416
aS'SX342.WAV'
p6417
aS'SX252.WAV'
p6418
aS'SX72.WAV'
p6419
aS'SI1152.WAV'
p6420
aS'SX162.WAV'
p6421
aS'SI1990.WAV'
p6422
aS'SI1782.WAV'
p6423
aS'SA1.WAV'
p6424
asS'MKJL0'
p6425
(lp6426
S'SA2.WAV'
p6427
aS'SX200.WAV'
p6428
aS'SX20.WAV'
p6429
aS'SX380.WAV'
p6430
aS'SI1100.WAV'
p6431
aS'SX110.WAV'
p6432
aS'SI470.WAV'
p6433
aS'SI1730.WAV'
p6434
aS'SA1.WAV'
p6435
asS'MESJ0'
p6436
(lp6437
S'SA2.WAV'
p6438
aS'SX367.WAV'
p6439
aS'SX277.WAV'
p6440
aS'SX97.WAV'
p6441
aS'SI2039.WAV'
p6442
aS'SX187.WAV'
p6443
aS'SI997.WAV'
p6444
aS'SI2257.WAV'
p6445
aS'SA1.WAV'
p6446
asS'MPGL0'
p6447
(lp6448
S'SA2.WAV'
p6449
aS'SX199.WAV'
p6450
aS'SX19.WAV'
p6451
aS'SX379.WAV'
p6452
aS'SI1099.WAV'
p6453
aS'SX109.WAV'
p6454
aS'SI469.WAV'
p6455
aS'SI1729.WAV'
p6456
aS'SA1.WAV'
p6457
asS'MWDK0'
p6458
(lp6459
S'SA2.WAV'
p6460
aS'SX356.WAV'
p6461
aS'SX266.WAV'
p6462
aS'SX86.WAV'
p6463
aS'SI1436.WAV'
p6464
aS'SX176.WAV'
p6465
aS'SI806.WAV'
p6466
aS'SI2017.WAV'
p6467
aS'SA1.WAV'
p6468
asS'FHLM0'
p6469
(lp6470
S'SA2.WAV'
p6471
aS'SX300.WAV'
p6472
aS'SX210.WAV'
p6473
aS'SX390.WAV'
p6474
aS'SI1560.WAV'
p6475
aS'SX120.WAV'
p6476
aS'SI930.WAV'
p6477
aS'SI2190.WAV'
p6478
aS'SA1.WAV'
p6479
asS'MJWS0'
p6480
(lp6481
S'SA2.WAV'
p6482
aS'SX333.WAV'
p6483
aS'SX243.WAV'
p6484
aS'SX63.WAV'
p6485
aS'SI1143.WAV'
p6486
aS'SX153.WAV'
p6487
aS'SI513.WAV'
p6488
aS'SI1773.WAV'
p6489
aS'SA1.WAV'
p6490
asS'MLNT0'
p6491
(lp6492
S'SA2.WAV'
p6493
aS'SX192.WAV'
p6494
aS'SX12.WAV'
p6495
aS'SX372.WAV'
p6496
aS'SI1574.WAV'
p6497
aS'SX102.WAV'
p6498
aS'SI642.WAV'
p6499
aS'SI1902.WAV'
p6500
aS'SA1.WAV'
p6501
asS'MMJR0'
p6502
(lp6503
S'SA2.WAV'
p6504
aS'SX28.WAV'
p6505
aS'SX208.WAV'
p6506
aS'SX388.WAV'
p6507
aS'SI1648.WAV'
p6508
aS'SX118.WAV'
p6509
aS'SI2278.WAV'
p6510
aS'SI2166.WAV'
p6511
aS'SA1.WAV'
p6512
asS'MRCS0'
p6513
(lp6514
S'SA2.WAV'
p6515
aS'SX323.WAV'
p6516
aS'SX233.WAV'
p6517
aS'SX53.WAV'
p6518
aS'SI1223.WAV'
p6519
aS'SX143.WAV'
p6520
aS'SI593.WAV'
p6521
aS'SI1853.WAV'
p6522
aS'SA1.WAV'
p6523
asS'FVKB0'
p6524
(lp6525
S'SA2.WAV'
p6526
aS'SX349.WAV'
p6527
aS'SX259.WAV'
p6528
aS'SX79.WAV'
p6529
aS'SI1159.WAV'
p6530
aS'SX169.WAV'
p6531
aS'SI529.WAV'
p6532
aS'SI1789.WAV'
p6533
aS'SA1.WAV'
p6534
asS'MWEM0'
p6535
(lp6536
S'SA2.WAV'
p6537
aS'SX330.WAV'
p6538
aS'SX240.WAV'
p6539
aS'SX60.WAV'
p6540
aS'SI1320.WAV'
p6541
aS'SX150.WAV'
p6542
aS'SI1950.WAV'
p6543
aS'SI1393.WAV'
p6544
aS'SA1.WAV'
p6545
asS'MTML0'
p6546
(lp6547
S'SA2.WAV'
p6548
aS'SX345.WAV'
p6549
aS'SX255.WAV'
p6550
aS'SX75.WAV'
p6551
aS'SI1065.WAV'
p6552
aS'SX165.WAV'
p6553
aS'SI2325.WAV'
p6554
aS'SI1695.WAV'
p6555
aS'SA1.WAV'
p6556
asS'FDTD0'
p6557
(lp6558
S'SA2.WAV'
p6559
aS'SX301.WAV'
p6560
aS'SX211.WAV'
p6561
aS'SX391.WAV'
p6562
aS'SI1561.WAV'
p6563
aS'SX121.WAV'
p6564
aS'SI931.WAV'
p6565
aS'SI2191.WAV'
p6566
aS'SA1.WAV'
p6567
asS'FLBW0'
p6568
(lp6569
S'SA2.WAV'
p6570
aS'SX319.WAV'
p6571
aS'SX229.WAV'
p6572
aS'SX49.WAV'
p6573
aS'SI1219.WAV'
p6574
aS'SX139.WAV'
p6575
aS'SI2253.WAV'
p6576
aS'SI1849.WAV'
p6577
aS'SA1.WAV'
p6578
asS'FJLR0'
p6579
(lp6580
S'SA2.WAV'
p6581
aS'SX331.WAV'
p6582
aS'SX241.WAV'
p6583
aS'SX61.WAV'
p6584
aS'SI1231.WAV'
p6585
aS'SX151.WAV'
p6586
aS'SI601.WAV'
p6587
aS'SI1861.WAV'
p6588
aS'SA1.WAV'
p6589
asS'MDSC0'
p6590
(lp6591
S'SA2.WAV'
p6592
aS'SX318.WAV'
p6593
aS'SX228.WAV'
p6594
aS'SX48.WAV'
p6595
aS'SI1038.WAV'
p6596
aS'SX138.WAV'
p6597
aS'SI967.WAV'
p6598
aS'SI2298.WAV'
p6599
aS'SA1.WAV'
p6600
asS'FCRH0'
p6601
(lp6602
S'SA2.WAV'
p6603
aS'SX368.WAV'
p6604
aS'SX278.WAV'
p6605
aS'SX98.WAV'
p6606
aS'SI1088.WAV'
p6607
aS'SX188.WAV'
p6608
aS'SI458.WAV'
p6609
aS'SI1718.WAV'
p6610
aS'SA1.WAV'
p6611
asS'MVRW0'
p6612
(lp6613
S'SA2.WAV'
p6614
aS'SX315.WAV'
p6615
aS'SX225.WAV'
p6616
aS'SX45.WAV'
p6617
aS'SI1485.WAV'
p6618
aS'SX135.WAV'
p6619
aS'SI855.WAV'
p6620
aS'SI2115.WAV'
p6621
aS'SA1.WAV'
p6622
asS'MDDC0'
p6623
(lp6624
S'SA2.WAV'
p6625
aS'SX339.WAV'
p6626
aS'SX249.WAV'
p6627
aS'SX69.WAV'
p6628
aS'SI1419.WAV'
p6629
aS'SX159.WAV'
p6630
aS'SI789.WAV'
p6631
aS'SI2049.WAV'
p6632
aS'SA1.WAV'
p6633
asS'FDXW0'
p6634
(lp6635
S'SA2.WAV'
p6636
aS'SX341.WAV'
p6637
aS'SX251.WAV'
p6638
aS'SX71.WAV'
p6639
aS'SI1511.WAV'
p6640
aS'SX161.WAV'
p6641
aS'SI881.WAV'
p6642
aS'SI2141.WAV'
p6643
aS'SA1.WAV'
p6644
asS'FLOD0'
p6645
(lp6646
S'SA2.WAV'
p6647
aS'SX207.WAV'
p6648
aS'SX171.WAV'
p6649
aS'SX387.WAV'
p6650
aS'SI1287.WAV'
p6651
aS'SX117.WAV'
p6652
aS'SI657.WAV'
p6653
aS'SI1917.WAV'
p6654
aS'SA1.WAV'
p6655
asS'FSXA0'
p6656
(lp6657
S'SA2.WAV'
p6658
aS'SX28.WAV'
p6659
aS'SX208.WAV'
p6660
aS'SX388.WAV'
p6661
aS'SI1108.WAV'
p6662
aS'SX118.WAV'
p6663
aS'SI478.WAV'
p6664
aS'SI1846.WAV'
p6665
aS'SA1.WAV'
p6666
asS'FLKD0'
p6667
(lp6668
S'SA2.WAV'
p6669
aS'SX199.WAV'
p6670
aS'SX19.WAV'
p6671
aS'SX379.WAV'
p6672
aS'SI1369.WAV'
p6673
aS'SX109.WAV'
p6674
aS'SI894.WAV'
p6675
aS'SI739.WAV'
p6676
aS'SA1.WAV'
p6677
asS'MDAW1'
p6678
(lp6679
S'SA2.WAV'
p6680
aS'SX193.WAV'
p6681
aS'SX13.WAV'
p6682
aS'SX373.WAV'
p6683
aS'SI1453.WAV'
p6684
aS'SX103.WAV'
p6685
aS'SI823.WAV'
p6686
aS'SI2083.WAV'
p6687
aS'SA1.WAV'
p6688
asS'FKDW0'
p6689
(lp6690
S'SA2.WAV'
p6691
aS'SX307.WAV'
p6692
aS'SX217.WAV'
p6693
aS'SX397.WAV'
p6694
aS'SI1207.WAV'
p6695
aS'SX127.WAV'
p6696
aS'SI577.WAV'
p6697
aS'SI1891.WAV'
p6698
aS'SA1.WAV'
p6699
asS'MJDG0'
p6700
(lp6701
S'SA2.WAV'
p6702
aS'SX322.WAV'
p6703
aS'SX232.WAV'
p6704
aS'SX52.WAV'
p6705
aS'SI1042.WAV'
p6706
aS'SX142.WAV'
p6707
aS'SI1705.WAV'
p6708
aS'SI1672.WAV'
p6709
aS'SA1.WAV'
p6710
asS'FCMH1'
p6711
(lp6712
S'SA2.WAV'
p6713
aS'SX323.WAV'
p6714
aS'SX233.WAV'
p6715
aS'SX53.WAV'
p6716
aS'SI1493.WAV'
p6717
aS'SX143.WAV'
p6718
aS'SI863.WAV'
p6719
aS'SI2123.WAV'
p6720
aS'SA1.WAV'
p6721
asS'FLJD0'
p6722
(lp6723
S'SA2.WAV'
p6724
aS'SX346.WAV'
p6725
aS'SX256.WAV'
p6726
aS'SX76.WAV'
p6727
aS'SI1516.WAV'
p6728
aS'SX166.WAV'
p6729
aS'SI886.WAV'
p6730
aS'SI2146.WAV'
p6731
aS'SA1.WAV'
p6732
asS'MKLR0'
p6733
(lp6734
S'SA2.WAV'
p6735
aS'SX339.WAV'
p6736
aS'SX249.WAV'
p6737
aS'SX69.WAV'
p6738
aS'SI1059.WAV'
p6739
aS'SX159.WAV'
p6740
aS'SI2319.WAV'
p6741
aS'SI1689.WAV'
p6742
aS'SA1.WAV'
p6743
asS'MHJB0'
p6744
(lp6745
S'SA2.WAV'
p6746
aS'SX27.WAV'
p6747
aS'SX207.WAV'
p6748
aS'SX387.WAV'
p6749
aS'SI1017.WAV'
p6750
aS'SX117.WAV'
p6751
aS'SI2277.WAV'
p6752
aS'SI1647.WAV'
p6753
aS'SA1.WAV'
p6754
asS'MKDB0'
p6755
(lp6756
S'SA2.WAV'
p6757
aS'SX332.WAV'
p6758
aS'SX242.WAV'
p6759
aS'SX62.WAV'
p6760
aS'SI2132.WAV'
p6761
aS'SX152.WAV'
p6762
aS'SI872.WAV'
p6763
aS'SI588.WAV'
p6764
aS'SA1.WAV'
p6765
asS'MBMA1'
p6766
(lp6767
S'SA2.WAV'
p6768
aS'SX324.WAV'
p6769
aS'SX234.WAV'
p6770
aS'SX54.WAV'
p6771
aS'SI2207.WAV'
p6772
aS'SX144.WAV'
p6773
aS'SI954.WAV'
p6774
aS'SI2214.WAV'
p6775
aS'SA1.WAV'
p6776
asS'FBMJ0'
p6777
(lp6778
S'SA2.WAV'
p6779
aS'SX336.WAV'
p6780
aS'SX246.WAV'
p6781
aS'SX66.WAV'
p6782
aS'SI1776.WAV'
p6783
aS'SX156.WAV'
p6784
aS'SI815.WAV'
p6785
aS'SI516.WAV'
p6786
aS'SA1.WAV'
p6787
asS'MVLO0'
p6788
(lp6789
S'SA2.WAV'
p6790
aS'SX337.WAV'
p6791
aS'SX247.WAV'
p6792
aS'SX67.WAV'
p6793
aS'SI1147.WAV'
p6794
aS'SX157.WAV'
p6795
aS'SI517.WAV'
p6796
aS'SI1777.WAV'
p6797
aS'SA1.WAV'
p6798
asS'FNKL0'
p6799
(lp6800
S'SA2.WAV'
p6801
aS'SX262.WAV'
p6802
aS'SX196.WAV'
p6803
aS'SX82.WAV'
p6804
aS'SI1522.WAV'
p6805
aS'SX172.WAV'
p6806
aS'SI892.WAV'
p6807
aS'SI2152.WAV'
p6808
aS'SA1.WAV'
p6809
asS'MMAB0'
p6810
(lp6811
S'SA2.WAV'
p6812
aS'SX192.WAV'
p6813
aS'SX12.WAV'
p6814
aS'SX372.WAV'
p6815
aS'SI1362.WAV'
p6816
aS'SX102.WAV'
p6817
aS'SI732.WAV'
p6818
aS'SI1992.WAV'
p6819
aS'SA1.WAV'
p6820
asS'MMVP0'
p6821
(lp6822
S'SA2.WAV'
p6823
aS'SX294.WAV'
p6824
aS'SX204.WAV'
p6825
aS'SX384.WAV'
p6826
aS'SI1284.WAV'
p6827
aS'SX114.WAV'
p6828
aS'SI654.WAV'
p6829
aS'SI1914.WAV'
p6830
aS'SA1.WAV'
p6831
asS'MDPB0'
p6832
(lp6833
S'SA2.WAV'
p6834
aS'SX326.WAV'
p6835
aS'SX236.WAV'
p6836
aS'SX56.WAV'
p6837
aS'SI1760.WAV'
p6838
aS'SX146.WAV'
p6839
aS'SI866.WAV'
p6840
aS'SI2126.WAV'
p6841
aS'SA1.WAV'
p6842
asS'MWAR0'
p6843
(lp6844
S'SA2.WAV'
p6845
aS'SX325.WAV'
p6846
aS'SX235.WAV'
p6847
aS'SX55.WAV'
p6848
aS'SI1045.WAV'
p6849
aS'SX145.WAV'
p6850
aS'SI2305.WAV'
p6851
aS'SI1675.WAV'
p6852
aS'SA1.WAV'
p6853
asS'MJVW0'
p6854
(lp6855
S'SA2.WAV'
p6856
aS'SX23.WAV'
p6857
aS'SX203.WAV'
p6858
aS'SX383.WAV'
p6859
aS'SI1733.WAV'
p6860
aS'SX113.WAV'
p6861
aS'SI473.WAV'
p6862
aS'SI1758.WAV'
p6863
aS'SA1.WAV'
p6864
asS'MPDF0'
p6865
(lp6866
S'SA2.WAV'
p6867
aS'SX192.WAV'
p6868
aS'SX12.WAV'
p6869
aS'SX372.WAV'
p6870
aS'SI1542.WAV'
p6871
aS'SX102.WAV'
p6872
aS'SI912.WAV'
p6873
aS'SI2172.WAV'
p6874
aS'SA1.WAV'
p6875
asS'FMMH0'
p6876
(lp6877
S'SA2.WAV'
p6878
aS'SX420.WAV'
p6879
aS'SX367.WAV'
p6880
aS'SX97.WAV'
p6881
aS'SI1537.WAV'
p6882
aS'SX187.WAV'
p6883
aS'SI907.WAV'
p6884
aS'SI2167.WAV'
p6885
aS'SA1.WAV'
p6886
asS'FMJU0'
p6887
(lp6888
S'SA2.WAV'
p6889
aS'SX309.WAV'
p6890
aS'SX219.WAV'
p6891
aS'SX399.WAV'
p6892
aS'SI1389.WAV'
p6893
aS'SX129.WAV'
p6894
aS'SI759.WAV'
p6895
aS'SI2019.WAV'
p6896
aS'SA1.WAV'
p6897
asS'MTMN0'
p6898
(lp6899
S'SA2.WAV'
p6900
aS'SX344.WAV'
p6901
aS'SX254.WAV'
p6902
aS'SX74.WAV'
p6903
aS'SI1064.WAV'
p6904
aS'SX164.WAV'
p6905
aS'SI582.WAV'
p6906
aS'SI2324.WAV'
p6907
aS'SA1.WAV'
p6908
asS'MJAI0'
p6909
(lp6910
S'SA2.WAV'
p6911
aS'SX344.WAV'
p6912
aS'SX254.WAV'
p6913
aS'SX74.WAV'
p6914
aS'SI1604.WAV'
p6915
aS'SX164.WAV'
p6916
aS'SI710.WAV'
p6917
aS'SI682.WAV'
p6918
aS'SA1.WAV'
p6919
asS'MJMA0'
p6920
(lp6921
S'SA2.WAV'
p6922
aS'SX325.WAV'
p6923
aS'SX235.WAV'
p6924
aS'SX55.WAV'
p6925
aS'SI1495.WAV'
p6926
aS'SX145.WAV'
p6927
aS'SI865.WAV'
p6928
aS'SI2125.WAV'
p6929
aS'SA1.WAV'
p6930
asS'MCSH0'
p6931
(lp6932
S'SA2.WAV'
p6933
aS'SX199.WAV'
p6934
aS'SX19.WAV'
p6935
aS'SX379.WAV'
p6936
aS'SI1549.WAV'
p6937
aS'SX109.WAV'
p6938
aS'SI919.WAV'
p6939
aS'SI2179.WAV'
p6940
aS'SA1.WAV'
p6941
asS'MKAM0'
p6942
(lp6943
S'SA2.WAV'
p6944
aS'SX326.WAV'
p6945
aS'SX236.WAV'
p6946
aS'SX56.WAV'
p6947
aS'SI1250.WAV'
p6948
aS'SX146.WAV'
p6949
aS'SI1465.WAV'
p6950
aS'SI1316.WAV'
p6951
aS'SA1.WAV'
p6952
asS'MJRP0'
p6953
(lp6954
S'SA2.WAV'
p6955
aS'SX315.WAV'
p6956
aS'SX225.WAV'
p6957
aS'SX45.WAV'
p6958
aS'SI1835.WAV'
p6959
aS'SX135.WAV'
p6960
aS'SI585.WAV'
p6961
aS'SI1845.WAV'
p6962
aS'SA1.WAV'
p6963
asS'MGSL0'
p6964
(lp6965
S'SA2.WAV'
p6966
aS'SX354.WAV'
p6967
aS'SX264.WAV'
p6968
aS'SX84.WAV'
p6969
aS'SI1164.WAV'
p6970
aS'SX174.WAV'
p6971
aS'SI797.WAV'
p6972
aS'SI534.WAV'
p6973
aS'SA1.WAV'
p6974
asS'FGCS0'
p6975
(lp6976
S'SA2.WAV'
p6977
aS'SX316.WAV'
p6978
aS'SX226.WAV'
p6979
aS'SX46.WAV'
p6980
aS'SI1486.WAV'
p6981
aS'SX136.WAV'
p6982
aS'SI856.WAV'
p6983
aS'SI2116.WAV'
p6984
aS'SA1.WAV'
p6985
asS'MADD0'
p6986
(lp6987
S'SA2.WAV'
p6988
aS'SX358.WAV'
p6989
aS'SX268.WAV'
p6990
aS'SX88.WAV'
p6991
aS'SI1295.WAV'
p6992
aS'SX178.WAV'
p6993
aS'SI538.WAV'
p6994
aS'SI1798.WAV'
p6995
aS'SA1.WAV'
p6996
asS'MBTH0'
p6997
(lp6998
S'SA2.WAV'
p6999
aS'SX302.WAV'
p7000
aS'SX212.WAV'
p7001
aS'SX392.WAV'
p7002
aS'SI2102.WAV'
p7003
aS'SX122.WAV'
p7004
aS'SI757.WAV'
p7005
aS'SI505.WAV'
p7006
aS'SA1.WAV'
p7007
asS'FSCN0'
p7008
(lp7009
S'SA2.WAV'
p7010
aS'SX356.WAV'
p7011
aS'SX266.WAV'
p7012
aS'SX86.WAV'
p7013
aS'SI1886.WAV'
p7014
aS'SX176.WAV'
p7015
aS'SI705.WAV'
p7016
aS'SI626.WAV'
p7017
aS'SA1.WAV'
p7018
asS'MTDP0'
p7019
(lp7020
S'SA2.WAV'
p7021
aS'SX351.WAV'
p7022
aS'SX261.WAV'
p7023
aS'SX81.WAV'
p7024
aS'SI1274.WAV'
p7025
aS'SX171.WAV'
p7026
aS'SI2151.WAV'
p7027
aS'SI1521.WAV'
p7028
aS'SA1.WAV'
p7029
asS'FRJB0'
p7030
(lp7031
S'SA2.WAV'
p7032
aS'SX347.WAV'
p7033
aS'SX257.WAV'
p7034
aS'SX77.WAV'
p7035
aS'SI1427.WAV'
p7036
aS'SX167.WAV'
p7037
aS'SI1794.WAV'
p7038
aS'SI1470.WAV'
p7039
aS'SA1.WAV'
p7040
asS'MSLB0'
p7041
(lp7042
S'SA2.WAV'
p7043
aS'SX23.WAV'
p7044
aS'SX203.WAV'
p7045
aS'SX383.WAV'
p7046
aS'SI1193.WAV'
p7047
aS'SX113.WAV'
p7048
aS'SI563.WAV'
p7049
aS'SI1823.WAV'
p7050
aS'SA1.WAV'
p7051
asS'FPAS0'
p7052
(lp7053
S'SA2.WAV'
p7054
aS'SX314.WAV'
p7055
aS'SX224.WAV'
p7056
aS'SX44.WAV'
p7057
aS'SI1272.WAV'
p7058
aS'SX134.WAV'
p7059
aS'SI944.WAV'
p7060
aS'SI2204.WAV'
p7061
aS'SA1.WAV'
p7062
asS'MDTB0'
p7063
(lp7064
S'SA2.WAV'
p7065
aS'SX300.WAV'
p7066
aS'SX210.WAV'
p7067
aS'SX390.WAV'
p7068
aS'SI1200.WAV'
p7069
aS'SX120.WAV'
p7070
aS'SI570.WAV'
p7071
aS'SI1830.WAV'
p7072
aS'SA1.WAV'
p7073
asS'FSDC0'
p7074
(lp7075
S'SA2.WAV'
p7076
aS'SX322.WAV'
p7077
aS'SX232.WAV'
p7078
aS'SX52.WAV'
p7079
aS'SI1312.WAV'
p7080
aS'SX142.WAV'
p7081
aS'SI2234.WAV'
p7082
aS'SI1942.WAV'
p7083
aS'SA1.WAV'
p7084
asS'MJFH0'
p7085
(lp7086
S'SA2.WAV'
p7087
aS'SX27.WAV'
p7088
aS'SX207.WAV'
p7089
aS'SX387.WAV'
p7090
aS'SI1107.WAV'
p7091
aS'SX117.WAV'
p7092
aS'SI477.WAV'
p7093
aS'SI1737.WAV'
p7094
aS'SA1.WAV'
p7095
asS'MFXV0'
p7096
(lp7097
S'SA2.WAV'
p7098
aS'SX195.WAV'
p7099
aS'SX15.WAV'
p7100
aS'SX375.WAV'
p7101
aS'SI1005.WAV'
p7102
aS'SX105.WAV'
p7103
aS'SI1635.WAV'
p7104
aS'SI1342.WAV'
p7105
aS'SA1.WAV'
p7106
asS'FJXM0'
p7107
(lp7108
S'SA2.WAV'
p7109
aS'SX311.WAV'
p7110
aS'SX221.WAV'
p7111
aS'SX41.WAV'
p7112
aS'SI1211.WAV'
p7113
aS'SX131.WAV'
p7114
aS'SI581.WAV'
p7115
aS'SI1971.WAV'
p7116
aS'SA1.WAV'
p7117
asS'MGSH0'
p7118
(lp7119
S'SA2.WAV'
p7120
aS'SX276.WAV'
p7121
aS'SX186.WAV'
p7122
aS'SX96.WAV'
p7123
aS'SI1176.WAV'
p7124
aS'SX127.WAV'
p7125
aS'SI546.WAV'
p7126
aS'SI1806.WAV'
p7127
aS'SA1.WAV'
p7128
asS'MDNS0'
p7129
(lp7130
S'SA2.WAV'
p7131
aS'SX21.WAV'
p7132
aS'SX201.WAV'
p7133
aS'SX381.WAV'
p7134
aS'SI1011.WAV'
p7135
aS'SX111.WAV'
p7136
aS'SI873.WAV'
p7137
aS'SI2271.WAV'
p7138
aS'SA1.WAV'
p7139
asS'FBMH0'
p7140
(lp7141
S'SA2.WAV'
p7142
aS'SX326.WAV'
p7143
aS'SX236.WAV'
p7144
aS'SX56.WAV'
p7145
aS'SI1136.WAV'
p7146
aS'SX146.WAV'
p7147
aS'SI970.WAV'
p7148
aS'SI1766.WAV'
p7149
aS'SA1.WAV'
p7150
asS'MTJS0'
p7151
(lp7152
S'SA2.WAV'
p7153
aS'SX22.WAV'
p7154
aS'SX202.WAV'
p7155
aS'SX382.WAV'
p7156
aS'SI1192.WAV'
p7157
aS'SX112.WAV'
p7158
aS'SI562.WAV'
p7159
aS'SI1822.WAV'
p7160
aS'SA1.WAV'
p7161
asS'FASW0'
p7162
(lp7163
S'SA2.WAV'
p7164
aS'SX200.WAV'
p7165
aS'SX20.WAV'
p7166
aS'SX380.WAV'
p7167
aS'SI1550.WAV'
p7168
aS'SX110.WAV'
p7169
aS'SI920.WAV'
p7170
aS'SI2180.WAV'
p7171
aS'SA1.WAV'
p7172
asS'MRRE0'
p7173
(lp7174
S'SA2.WAV'
p7175
aS'SX344.WAV'
p7176
aS'SX254.WAV'
p7177
aS'SX74.WAV'
p7178
aS'SI1334.WAV'
p7179
aS'SX164.WAV'
p7180
aS'SI952.WAV'
p7181
aS'SI704.WAV'
p7182
aS'SA1.WAV'
p7183
asS'FDML0'
p7184
(lp7185
S'SA2.WAV'
p7186
aS'SX339.WAV'
p7187
aS'SX249.WAV'
p7188
aS'SX69.WAV'
p7189
aS'SI1149.WAV'
p7190
aS'SX159.WAV'
p7191
aS'SI2075.WAV'
p7192
aS'SI1779.WAV'
p7193
aS'SA1.WAV'
p7194
asS'MAJP0'
p7195
(lp7196
S'SA2.WAV'
p7197
aS'SX354.WAV'
p7198
aS'SX264.WAV'
p7199
aS'SX84.WAV'
p7200
aS'SI1074.WAV'
p7201
aS'SX174.WAV'
p7202
aS'SI2334.WAV'
p7203
aS'SI1704.WAV'
p7204
aS'SA1.WAV'
p7205
asS'MGRL0'
p7206
(lp7207
S'SA2.WAV'
p7208
aS'SX327.WAV'
p7209
aS'SX237.WAV'
p7210
aS'SX57.WAV'
p7211
aS'SI1497.WAV'
p7212
aS'SX147.WAV'
p7213
aS'SI867.WAV'
p7214
aS'SI2127.WAV'
p7215
aS'SA1.WAV'
p7216
asS'FGJD0'
p7217
(lp7218
S'SA2.WAV'
p7219
aS'SX369.WAV'
p7220
aS'SX279.WAV'
p7221
aS'SX99.WAV'
p7222
aS'SI1179.WAV'
p7223
aS'SX189.WAV'
p7224
aS'SI818.WAV'
p7225
aS'SI549.WAV'
p7226
aS'SA1.WAV'
p7227
asS'FHXS0'
p7228
(lp7229
S'SA2.WAV'
p7230
aS'SX355.WAV'
p7231
aS'SX265.WAV'
p7232
aS'SX85.WAV'
p7233
aS'SI1075.WAV'
p7234
aS'SX175.WAV'
p7235
aS'SI2335.WAV'
p7236
aS'SI2302.WAV'
p7237
aS'SA1.WAV'
p7238
asS'MJPM0'
p7239
(lp7240
S'SA2.WAV'
p7241
aS'SX198.WAV'
p7242
aS'SX18.WAV'
p7243
aS'SX378.WAV'
p7244
aS'SI1368.WAV'
p7245
aS'SX108.WAV'
p7246
aS'SI738.WAV'
p7247
aS'SI1998.WAV'
p7248
aS'SA1.WAV'
p7249
asS'MTAA0'
p7250
(lp7251
S'SA2.WAV'
p7252
aS'SX25.WAV'
p7253
aS'SX205.WAV'
p7254
aS'SX385.WAV'
p7255
aS'SI1285.WAV'
p7256
aS'SX115.WAV'
p7257
aS'SI596.WAV'
p7258
aS'SI1915.WAV'
p7259
aS'SA1.WAV'
p7260
asS'MGRT0'
p7261
(lp7262
S'SA2.WAV'
p7263
aS'SX190.WAV'
p7264
aS'SX100.WAV'
p7265
aS'SX370.WAV'
p7266
aS'SI1450.WAV'
p7267
aS'SX10.WAV'
p7268
aS'SI820.WAV'
p7269
aS'SI2080.WAV'
p7270
aS'SA1.WAV'
p7271
asS'FKLC1'
p7272
(lp7273
S'SA2.WAV'
p7274
aS'SX328.WAV'
p7275
aS'SX238.WAV'
p7276
aS'SX58.WAV'
p7277
aS'SI1048.WAV'
p7278
aS'SX148.WAV'
p7279
aS'SI2308.WAV'
p7280
aS'SI1678.WAV'
p7281
aS'SA1.WAV'
p7282
asS'FKLC0'
p7283
(lp7284
S'SA2.WAV'
p7285
aS'SX355.WAV'
p7286
aS'SX265.WAV'
p7287
aS'SX85.WAV'
p7288
aS'SI1615.WAV'
p7289
aS'SX175.WAV'
p7290
aS'SI985.WAV'
p7291
aS'SI2245.WAV'
p7292
aS'SA1.WAV'
p7293
asS'MRSO0'
p7294
(lp7295
S'SA2.WAV'
p7296
aS'SX309.WAV'
p7297
aS'SX219.WAV'
p7298
aS'SX399.WAV'
p7299
aS'SI1206.WAV'
p7300
aS'SX129.WAV'
p7301
aS'SI2289.WAV'
p7302
aS'SI1659.WAV'
p7303
aS'SA1.WAV'
p7304
asS'FCAU0'
p7305
(lp7306
S'SA2.WAV'
p7307
aS'SX317.WAV'
p7308
aS'SX227.WAV'
p7309
aS'SX47.WAV'
p7310
aS'SI1037.WAV'
p7311
aS'SX137.WAV'
p7312
aS'SI2297.WAV'
p7313
aS'SI1667.WAV'
p7314
aS'SA1.WAV'
p7315
asS'MDLS0'
p7316
(lp7317
S'SA2.WAV'
p7318
aS'SX368.WAV'
p7319
aS'SX278.WAV'
p7320
aS'SX98.WAV'
p7321
aS'SI1628.WAV'
p7322
aS'SX188.WAV'
p7323
aS'SI998.WAV'
p7324
aS'SI2258.WAV'
p7325
aS'SA1.WAV'
p7326
asS'FEDW0'
p7327
(lp7328
S'SA2.WAV'
p7329
aS'SX364.WAV'
p7330
aS'SX274.WAV'
p7331
aS'SX94.WAV'
p7332
aS'SI1084.WAV'
p7333
aS'SX184.WAV'
p7334
aS'SI1714.WAV'
p7335
aS'SI1653.WAV'
p7336
aS'SA1.WAV'
p7337
asS'MABC0'
p7338
(lp7339
S'SA2.WAV'
p7340
aS'SX331.WAV'
p7341
aS'SX241.WAV'
p7342
aS'SX61.WAV'
p7343
aS'SI1620.WAV'
p7344
aS'SX151.WAV'
p7345
aS'SI781.WAV'
p7346
aS'SI2041.WAV'
p7347
aS'SA1.WAV'
p7348
asS'MAKB0'
p7349
(lp7350
S'SA2.WAV'
p7351
aS'SX26.WAV'
p7352
aS'SX206.WAV'
p7353
aS'SX386.WAV'
p7354
aS'SI1016.WAV'
p7355
aS'SX116.WAV'
p7356
aS'SI2276.WAV'
p7357
aS'SI1646.WAV'
p7358
aS'SA1.WAV'
p7359
asS'MDWD0'
p7360
(lp7361
S'SA2.WAV'
p7362
aS'SX360.WAV'
p7363
aS'SX270.WAV'
p7364
aS'SX90.WAV'
p7365
aS'SI1260.WAV'
p7366
aS'SX180.WAV'
p7367
aS'SI557.WAV'
p7368
aS'SI1890.WAV'
p7369
aS'SA1.WAV'
p7370
asS'MRJM0'
p7371
(lp7372
S'SA2.WAV'
p7373
aS'SX328.WAV'
p7374
aS'SX238.WAV'
p7375
aS'SX58.WAV'
p7376
aS'SI1095.WAV'
p7377
aS'SX148.WAV'
p7378
aS'SI1858.WAV'
p7379
aS'SI1228.WAV'
p7380
aS'SA1.WAV'
p7381
asS'FJWB1'
p7382
(lp7383
S'SA2.WAV'
p7384
aS'SX345.WAV'
p7385
aS'SX255.WAV'
p7386
aS'SX75.WAV'
p7387
aS'SI2055.WAV'
p7388
aS'SX165.WAV'
p7389
aS'SI795.WAV'
p7390
aS'SI748.WAV'
p7391
aS'SA1.WAV'
p7392
asS'MPSW0'
p7393
(lp7394
S'SA2.WAV'
p7395
aS'SX257.WAV'
p7396
aS'SX24.WAV'
p7397
aS'SX77.WAV'
p7398
aS'SI1067.WAV'
p7399
aS'SX167.WAV'
p7400
aS'SI2327.WAV'
p7401
aS'SI1697.WAV'
p7402
aS'SA1.WAV'
p7403
asS'MJDC0'
p7404
(lp7405
S'SA2.WAV'
p7406
aS'SX351.WAV'
p7407
aS'SX261.WAV'
p7408
aS'SX81.WAV'
p7409
aS'SI1161.WAV'
p7410
aS'SX171.WAV'
p7411
aS'SI531.WAV'
p7412
aS'SI2165.WAV'
p7413
aS'SA1.WAV'
p7414
asS'MDLC1'
p7415
(lp7416
S'SA2.WAV'
p7417
aS'SX355.WAV'
p7418
aS'SX265.WAV'
p7419
aS'SX85.WAV'
p7420
aS'SI1435.WAV'
p7421
aS'SX175.WAV'
p7422
aS'SI2144.WAV'
p7423
aS'SI2065.WAV'
p7424
aS'SA1.WAV'
p7425
asS'MJSW0'
p7426
(lp7427
S'SA2.WAV'
p7428
aS'SX200.WAV'
p7429
aS'SX20.WAV'
p7430
aS'SX380.WAV'
p7431
aS'SI1010.WAV'
p7432
aS'SX110.WAV'
p7433
aS'SI2270.WAV'
p7434
aS'SI1640.WAV'
p7435
aS'SA1.WAV'
p7436
asS'FEXM0'
p7437
(lp7438
S'SA2.WAV'
p7439
aS'SX291.WAV'
p7440
aS'SX201.WAV'
p7441
aS'SX381.WAV'
p7442
aS'SI1101.WAV'
p7443
aS'SX111.WAV'
p7444
aS'SI482.WAV'
p7445
aS'SI1731.WAV'
p7446
aS'SA1.WAV'
p7447
assS'verification'
p7448
(dp7449
g6062
(lp7450
S'SX298.WAV'
p7451
asg6073
(lp7452
S'SX284.WAV'
p7453
asg6084
(lp7454
S'SX446.WAV'
p7455
asg6095
(lp7456
S'SX349.WAV'
p7457
asg6106
(lp7458
S'SX287.WAV'
p7459
asg6117
(lp7460
S'SX452.WAV'
p7461
asg6128
(lp7462
S'SX425.WAV'
p7463
asg6139
(lp7464
S'SX287.WAV'
p7465
asg6150
(lp7466
S'SX4.WAV'
p7467
asg6161
(lp7468
S'SX406.WAV'
p7469
asg6172
(lp7470
S'SX294.WAV'
p7471
asg6183
(lp7472
S'SX433.WAV'
p7473
asg6194
(lp7474
S'SX288.WAV'
p7475
asg6205
(lp7476
S'SX431.WAV'
p7477
asg6216
(lp7478
S'SX33.WAV'
p7479
asg6227
(lp7480
S'SX438.WAV'
p7481
asg6238
(lp7482
S'SX432.WAV'
p7483
asg6249
(lp7484
S'SX292.WAV'
p7485
asg6260
(lp7486
S'SX8.WAV'
p7487
asg6271
(lp7488
S'SX437.WAV'
p7489
asg6282
(lp7490
S'SX439.WAV'
p7491
asg6293
(lp7492
S'SX281.WAV'
p7493
asg6304
(lp7494
S'SX431.WAV'
p7495
asg6315
(lp7496
S'SX33.WAV'
p7497
asg6326
(lp7498
S'SX35.WAV'
p7499
asg6337
(lp7500
S'SX38.WAV'
p7501
asg6348
(lp7502
S'SX298.WAV'
p7503
asg6359
(lp7504
S'SX442.WAV'
p7505
asg6370
(lp7506
S'SX415.WAV'
p7507
asg6381
(lp7508
S'SX37.WAV'
p7509
asg6392
(lp7510
S'SX287.WAV'
p7511
asg6403
(lp7512
S'SX39.WAV'
p7513
asg6414
(lp7514
S'SX432.WAV'
p7515
asg6425
(lp7516
S'SX290.WAV'
p7517
asg6436
(lp7518
S'SX7.WAV'
p7519
asg6447
(lp7520
S'SX289.WAV'
p7521
asg6458
(lp7522
S'SX446.WAV'
p7523
asg6469
(lp7524
S'SX349.WAV'
p7525
asg6480
(lp7526
S'SX423.WAV'
p7527
asg6491
(lp7528
S'SX282.WAV'
p7529
asg6502
(lp7530
S'SX298.WAV'
p7531
asg6513
(lp7532
S'SX413.WAV'
p7533
asg6524
(lp7534
S'SX439.WAV'
p7535
asg6535
(lp7536
S'SX420.WAV'
p7537
asg6546
(lp7538
S'SX435.WAV'
p7539
asg6557
(lp7540
S'SX321.WAV'
p7541
asg6568
(lp7542
S'SX409.WAV'
p7543
asg6579
(lp7544
S'SX421.WAV'
p7545
asg6590
(lp7546
S'SX408.WAV'
p7547
asg6601
(lp7548
S'SX8.WAV'
p7549
asg6612
(lp7550
S'SX405.WAV'
p7551
asg6623
(lp7552
S'SX429.WAV'
p7553
asg6634
(lp7554
S'SX431.WAV'
p7555
asg6645
(lp7556
S'SX297.WAV'
p7557
asg6656
(lp7558
S'SX298.WAV'
p7559
asg6667
(lp7560
S'SX289.WAV'
p7561
asg6678
(lp7562
S'SX283.WAV'
p7563
asg6689
(lp7564
S'SX37.WAV'
p7565
asg6700
(lp7566
S'SX412.WAV'
p7567
asg6711
(lp7568
S'SX413.WAV'
p7569
asg6722
(lp7570
S'SX436.WAV'
p7571
asg6733
(lp7572
S'SX429.WAV'
p7573
asg6744
(lp7574
S'SX297.WAV'
p7575
asg6755
(lp7576
S'SX422.WAV'
p7577
asg6766
(lp7578
S'SX414.WAV'
p7579
asg6777
(lp7580
S'SX426.WAV'
p7581
asg6788
(lp7582
S'SX427.WAV'
p7583
asg6799
(lp7584
S'SX442.WAV'
p7585
asg6810
(lp7586
S'SX282.WAV'
p7587
asg6821
(lp7588
S'SX347.WAV'
p7589
asg6832
(lp7590
S'SX416.WAV'
p7591
asg6843
(lp7592
S'SX415.WAV'
p7593
asg6854
(lp7594
S'SX293.WAV'
p7595
asg6865
(lp7596
S'SX282.WAV'
p7597
asg6876
(lp7598
S'SX7.WAV'
p7599
asg6887
(lp7600
S'SX39.WAV'
p7601
asg6898
(lp7602
S'SX434.WAV'
p7603
asg6909
(lp7604
S'SX434.WAV'
p7605
asg6920
(lp7606
S'SX415.WAV'
p7607
asg6931
(lp7608
S'SX289.WAV'
p7609
asg6942
(lp7610
S'SX416.WAV'
p7611
asg6953
(lp7612
S'SX405.WAV'
p7613
asg6964
(lp7614
S'SX444.WAV'
p7615
asg6975
(lp7616
S'SX406.WAV'
p7617
asg6986
(lp7618
S'SX448.WAV'
p7619
asg6997
(lp7620
S'SX32.WAV'
p7621
asg7008
(lp7622
S'SX446.WAV'
p7623
asg7019
(lp7624
S'SX441.WAV'
p7625
asg7030
(lp7626
S'SX437.WAV'
p7627
asg7041
(lp7628
S'SX293.WAV'
p7629
asg7052
(lp7630
S'SX404.WAV'
p7631
asg7063
(lp7632
S'SX321.WAV'
p7633
asg7074
(lp7634
S'SX412.WAV'
p7635
asg7085
(lp7636
S'SX297.WAV'
p7637
asg7096
(lp7638
S'SX285.WAV'
p7639
asg7107
(lp7640
S'SX401.WAV'
p7641
asg7118
(lp7642
S'SX6.WAV'
p7643
asg7129
(lp7644
S'SX291.WAV'
p7645
asg7140
(lp7646
S'SX416.WAV'
p7647
asg7151
(lp7648
S'SX292.WAV'
p7649
asg7162
(lp7650
S'SX290.WAV'
p7651
asg7173
(lp7652
S'SX434.WAV'
p7653
asg7184
(lp7654
S'SX429.WAV'
p7655
asg7195
(lp7656
S'SX444.WAV'
p7657
asg7206
(lp7658
S'SX417.WAV'
p7659
asg7217
(lp7660
S'SX9.WAV'
p7661
asg7228
(lp7662
S'SX445.WAV'
p7663
asg7239
(lp7664
S'SX288.WAV'
p7665
asg7250
(lp7666
S'SX295.WAV'
p7667
asg7261
(lp7668
S'SX280.WAV'
p7669
asg7272
(lp7670
S'SX418.WAV'
p7671
asg7283
(lp7672
S'SX445.WAV'
p7673
asg7294
(lp7674
S'SX39.WAV'
p7675
asg7305
(lp7676
S'SX407.WAV'
p7677
asg7316
(lp7678
S'SX8.WAV'
p7679
asg7327
(lp7680
S'SX4.WAV'
p7681
asg7338
(lp7682
S'SX421.WAV'
p7683
asg7349
(lp7684
S'SX296.WAV'
p7685
asg7360
(lp7686
S'SX450.WAV'
p7687
asg7371
(lp7688
S'SX418.WAV'
p7689
asg7382
(lp7690
S'SX435.WAV'
p7691
asg7393
(lp7692
S'SX437.WAV'
p7693
asg7404
(lp7694
S'SX441.WAV'
p7695
asg7415
(lp7696
S'SX445.WAV'
p7697
asg7426
(lp7698
S'SX290.WAV'
p7699
asg7437
(lp7700
S'SX366.WAV'
p7701
assb.